--- !tapi-tbd
tbd-version:     4
targets:         [ arm64-ios ]
uuids:
  - target:          arm64-ios
    value:           CA598ED8-9A15-3D22-8551-5D9536B4CC5C
flags:           [ not_app_extension_safe ]
install-name:    '/usr/lib/libapt-pkg.6.0.dylib'
current-version: 6
compatibility-version: 6
exports:
  - targets:         [ arm64-ios ]
    symbols:         [ _TFRewritePackageOrder, _TFRewriteSourceOrder, __Z10FileExistsNSt3__112basic_stringIcNS_11char_traitsIcEENS_9allocatorIcEEEE, 
                       __Z10GetTempDirRKNSt3__112basic_stringIcNS_11char_traitsIcEENS_9allocatorIcEEEE, 
                       __Z10GetTempDirv, __Z10IdentCdromNSt3__112basic_stringIcNS_11char_traitsIcEENS_9allocatorIcEEEERS5_j, 
                       __Z10ListUpdateR16pkgAcquireStatusR13pkgSourceListi, __Z10MountCdromNSt3__112basic_stringIcNS_11char_traitsIcEENS_9allocatorIcEEEES5_, 
                       __Z10ParseCWordRPKcRNSt3__112basic_stringIcNS2_11char_traitsIcEENS2_9allocatorIcEEEE, 
                       __Z10ReadPinDirR9pkgPolicyNSt3__112basic_stringIcNS1_11char_traitsIcEENS1_9allocatorIcEEEE, 
                       __Z10RemoveFilePKcRKNSt3__112basic_stringIcNS1_11char_traitsIcEENS1_9allocatorIcEEEE, 
                       __Z10RunScriptsPKc, __Z10SafeGetCWDv, __Z10StripEpochRKNSt3__112basic_stringIcNS_11char_traitsIcEENS_9allocatorIcEEEE, 
                       __Z10_strrstripPc, __Z11GetTempFileRKNSt3__112basic_stringIcNS_11char_traitsIcEENS_9allocatorIcEEEEbP6FileFd, 
                       __Z11QuoteStringRKNSt3__112basic_stringIcNS_11char_traitsIcEENS_9allocatorIcEEEEPKc, 
                       __Z11ReadPinFileR9pkgPolicyNSt3__112basic_stringIcNS1_11char_traitsIcEENS1_9allocatorIcEEEE, 
                       __Z11RegexChoiceP12RxChoiceListPPKcS3_, __Z11SetNonBlockib, 
                       __Z11StringSplitRKNSt3__112basic_stringIcNS_11char_traitsIcEENS_9allocatorIcEEEES7_j, 
                       __Z11TimeRFC1123lb, __Z11flExtensionNSt3__112basic_stringIcNS_11char_traitsIcEENS_9allocatorIcEEEE, 
                       __Z11strv_lengthPPKc, __Z12Base256ToNumPKcRmj, __Z12Base256ToNumPKcRyj, 
                       __Z12Base64EncodeRKNSt3__112basic_stringIcNS_11char_traitsIcEENS_9allocatorIcEEEE, 
                       __Z12MaybeAddAuthR6FileFdR3URI, __Z12ReadMessagesiRNSt3__16vectorINS_12basic_stringIcNS_11char_traitsIcEENS_9allocatorIcEEEENS4_IS6_EEEE, 
                       __Z12RemoveFileAtPKciRKNSt3__112basic_stringIcNS1_11char_traitsIcEENS1_9allocatorIcEEEE, 
                       __Z12SetCloseExecib, __Z12StringToBoolRKNSt3__112basic_stringIcNS_11char_traitsIcEENS_9allocatorIcEEEEi, 
                       __Z12UnmountCdromNSt3__112basic_stringIcNS_11char_traitsIcEENS_9allocatorIcEEEE, 
                       __Z12_GetErrorObjv, __Z12pkgFixBrokenR11pkgDepCache, __Z13AcquireUpdateR10pkgAcquireibb, 
                       __Z13DeQuoteStringRKNSt3__111__wrap_iterIPKcEES5_, __Z13DeQuoteStringRKNSt3__112basic_stringIcNS_11char_traitsIcEENS_9allocatorIcEEEE, 
                       __Z13GetSrvRecordsNSt3__112basic_stringIcNS_11char_traitsIcEENS_9allocatorIcEEEERNS_6vectorI6SrvRecNS3_IS7_EEEE, 
                       __Z13GetSrvRecordsNSt3__112basic_stringIcNS_11char_traitsIcEENS_9allocatorIcEEEEiRNS_6vectorI6SrvRecNS3_IS7_EEEE, 
                       __Z13OutputInDepthmPKc, __Z13ReadConfigDirR13ConfigurationRKNSt3__112basic_stringIcNS1_11char_traitsIcEENS1_9allocatorIcEEEERKbRKj, 
                       __Z13URItoFileNameRKNSt3__112basic_stringIcNS_11char_traitsIcEENS_9allocatorIcEEEE, 
                       __Z13UTF8ToCodesetPKcRKNSt3__112basic_stringIcNS1_11char_traitsIcEENS1_9allocatorIcEEEEPS7_, 
                       __Z13_strtabexpandPcm, __Z13pkgInitConfigR13Configuration, 
                       __Z13pkgInitSystemR13ConfigurationRP9pkgSystem, __Z13safe_snprintfPcS_PKcz, 
                       __Z13stringcasecmpNSt3__111__wrap_iterIPKcEES3_S2_S2_, __Z13stringcasecmpNSt3__111__wrap_iterIPKcEES3_S3_S3_, 
                       __Z13stringcasecmpPKcS0_S0_S0_, __Z14DeEscapeStringRKNSt3__112basic_stringIcNS_11char_traitsIcEENS_9allocatorIcEEEE, 
                       __Z14DropPrivilegesv, __Z14ParseQuoteWordRPKcRNSt3__112basic_stringIcNS2_11char_traitsIcEENS2_9allocatorIcEEEE, 
                       __Z14PopFromSrvRecsRNSt3__16vectorI6SrvRecNS_9allocatorIS1_EEEE, 
                       __Z14ReadConfigFileR13ConfigurationRKNSt3__112basic_stringIcNS1_11char_traitsIcEENS1_9allocatorIcEEEERKbRKj, 
                       __Z14RealFileExistsNSt3__112basic_stringIcNS_11char_traitsIcEENS_9allocatorIcEEEE, 
                       __Z14TokSplitStringcPcPS_m, __Z14pkgApplyStatusR11pkgDepCache, 
                       __Z15AutoDetectProxyR3URI, __Z15CheckDomainListRKNSt3__112basic_stringIcNS_11char_traitsIcEENS_9allocatorIcEEEES7_, 
                       __Z15CreateDirectoryRKNSt3__112basic_stringIcNS_11char_traitsIcEENS_9allocatorIcEEEES7_, 
                       __Z15DirectoryExistsRKNSt3__112basic_stringIcNS_11char_traitsIcEENS_9allocatorIcEEEE, 
                       __Z15VectorizeStringRKNSt3__112basic_stringIcNS_11char_traitsIcEENS_9allocatorIcEEEERKc, 
                       __Z15pkgPrioSortListR8pkgCachePPNS_7VersionE, __Z16FTPMDTMStrToTimePKcRl, 
                       __Z16RFC1123StrToTimeRKNSt3__112basic_stringIcNS_11char_traitsIcEENS_9allocatorIcEEEERl, 
                       __Z18pkgMinimizeUpgradeR11pkgDepCache, __Z19GetListOfFilesInDirRKNSt3__112basic_stringIcNS_11char_traitsIcEENS_9allocatorIcEEEERKNS_6vectorIS5_NS3_IS5_EEEERKb, 
                       __Z19GetListOfFilesInDirRKNSt3__112basic_stringIcNS_11char_traitsIcEENS_9allocatorIcEEEES7_RKbS9_, 
                       __Z19GetListOfFilesInDirRKNSt3__112basic_stringIcNS_11char_traitsIcEENS_9allocatorIcEEEEb, 
                       __Z19GetModificationTimeRKNSt3__112basic_stringIcNS_11char_traitsIcEENS_9allocatorIcEEEE, 
                       __Z20SplitClearSignedFileRKNSt3__112basic_stringIcNS_11char_traitsIcEENS_9allocatorIcEEEEP6FileFdPNS_6vectorIS5_NS3_IS5_EEEES9_, 
                       __Z23FindMountPointForDevicePKc, __Z24OpenMaybeClearSignedFileRKNSt3__112basic_stringIcNS_11char_traitsIcEENS_9allocatorIcEEEER6FileFd, 
                       __Z26CreateAPTDirectoryIfNeededRKNSt3__112basic_stringIcNS_11char_traitsIcEENS_9allocatorIcEEEES7_, 
                       __Z29MergeKeepFdsFromConfigurationRNSt3__13setIiNS_4lessIiEENS_9allocatorIiEEEE, 
                       __Z30ChangeOwnerAndPermissionOfFilePKcS0_S0_S0_t, __Z31StartsWithGPGClearTextSignatureRKNSt3__112basic_stringIcNS_11char_traitsIcEENS_9allocatorIcEEEE, 
                       __Z4GlobRKNSt3__112basic_stringIcNS_11char_traitsIcEENS_9allocatorIcEEEEi, 
                       __Z5PopenPPKcR6FileFdRiNS2_8OpenModeEbb, __Z6RenameNSt3__112basic_stringIcNS_11char_traitsIcEENS_9allocatorIcEEEES5_, 
                       __Z6RunCmdPKc, __Z6WaitFdibm, __Z7GetLockNSt3__112basic_stringIcNS_11char_traitsIcEENS_9allocatorIcEEEEb, 
                       __Z7Hex2NumN3APT10StringViewEPhj, __Z8CopyFileR6FileFdS0_, 
                       __Z8ExecForkNSt3__13setIiNS_4lessIiEENS_9allocatorIiEEEE, 
                       __Z8ExecForkv, __Z8ExecGPGVRKNSt3__112basic_stringIcNS_11char_traitsIcEENS_9allocatorIcEEEES7_RKiPiS7_, 
                       __Z8ExecWaitiPKcb, __Z8StrToNumPKcRmjj, __Z8StrToNumPKcRyjj, 
                       __Z8SubstVarNSt3__112basic_stringIcNS_11char_traitsIcEENS_9allocatorIcEEEEPK8SubstVar, 
                       __Z8SubstVarRKNSt3__112basic_stringIcNS_11char_traitsIcEENS_9allocatorIcEEEES7_S7_, 
                       __Z8flNoLinkNSt3__112basic_stringIcNS_11char_traitsIcEENS_9allocatorIcEEEE, 
                       __Z8flNotDirNSt3__112basic_stringIcNS_11char_traitsIcEENS_9allocatorIcEEEE, 
                       __Z8ioprintfRNSt3__113basic_ostreamIcNS_11char_traitsIcEEEEPKcz, 
                       __Z9IsMountedRNSt3__112basic_stringIcNS_11char_traitsIcEENS_9allocatorIcEEEE, 
                       __Z9LookupTagRKNSt3__112basic_stringIcNS_11char_traitsIcEENS_9allocatorIcEEEEPKcS9_, 
                       __Z9SizeToStrd, __Z9TimeToStrm, __Z9_strstripPc, __Z9flAbsPathNSt3__112basic_stringIcNS_11char_traitsIcEENS_9allocatorIcEEEE, 
                       __Z9flCombineNSt3__112basic_stringIcNS_11char_traitsIcEENS_9allocatorIcEEEES5_, 
                       __Z9flNotFileNSt3__112basic_stringIcNS_11char_traitsIcEENS_9allocatorIcEEEE, 
                       __Z9stringcmpNSt3__111__wrap_iterIPKcEES3_S2_S2_, __Z9stringcmpNSt3__111__wrap_iterIPKcEES3_S3_S3_, 
                       __Z9stringcmpPKcS0_S0_S0_, __Z9strprintfRNSt3__112basic_stringIcNS_11char_traitsIcEENS_9allocatorIcEEEEPKcz, 
                       __ZN10ExtractTar2GoER12pkgDirStream, __ZN10ExtractTar4DoneEv, 
                       __ZN10ExtractTar9StartGzipEv, __ZN10ExtractTarC1ER6FileFdyNSt3__112basic_stringIcNS2_11char_traitsIcEENS2_9allocatorIcEEEE, 
                       __ZN10ExtractTarC2ER6FileFdyNSt3__112basic_stringIcNS2_11char_traitsIcEENS2_9allocatorIcEEEE, 
                       __ZN10ExtractTarD0Ev, __ZN10ExtractTarD1Ev, __ZN10ExtractTarD2Ev, 
                       __ZN10HashString15SupportedHashesEv, __ZN10HashString16_SupportedHashesE, 
                       __ZN10HashString8FromFileENSt3__112basic_stringIcNS0_11char_traitsIcEENS0_9allocatorIcEEEE, 
                       __ZN10HashStringC1ENSt3__112basic_stringIcNS0_11char_traitsIcEENS0_9allocatorIcEEEE, 
                       __ZN10HashStringC1ENSt3__112basic_stringIcNS0_11char_traitsIcEENS0_9allocatorIcEEEES6_, 
                       __ZN10HashStringC1Ev, __ZN10HashStringC2ENSt3__112basic_stringIcNS0_11char_traitsIcEENS0_9allocatorIcEEEE, 
                       __ZN10HashStringC2ENSt3__112basic_stringIcNS0_11char_traitsIcEENS0_9allocatorIcEEEES6_, 
                       __ZN10HashStringC2Ev, __ZN10OpProgress11CheckChangeEf, __ZN10OpProgress11SubProgressEyRKNSt3__112basic_stringIcNS0_11char_traitsIcEENS0_9allocatorIcEEEEf, 
                       __ZN10OpProgress15OverallProgressEyyyRKNSt3__112basic_stringIcNS0_11char_traitsIcEENS0_9allocatorIcEEEE, 
                       __ZN10OpProgress8ProgressEy, __ZN10OpProgressC1Ev, __ZN10OpProgressC2Ev, 
                       __ZN10SourceCopy12RewriteEntryER6FileFdRKNSt3__112basic_stringIcNS2_11char_traitsIcEENS2_9allocatorIcEEEE, 
                       __ZN10SourceCopy7GetFileERNSt3__112basic_stringIcNS0_11char_traitsIcEENS0_9allocatorIcEEEERy, 
                       __ZN10SourceCopyC1Ev, __ZN10SourceCopyC2Ev, __ZN10SourceCopyD0Ev, 
                       __ZN10SourceCopyD1Ev, __ZN10SourceCopyD2Ev, __ZN10debDebFile10GotoMemberEPKc, 
                       __ZN10debDebFile11CheckMemberEPKc, __ZN10debDebFile14ControlExtract6DoItemERN12pkgDirStream4ItemERi, 
                       __ZN10debDebFile14ExtractArchiveER12pkgDirStream, __ZN10debDebFile16ExtractTarMemberER12pkgDirStreamPKc, 
                       __ZN10debDebFile17MemControlExtract11TakeControlEPKvy, __ZN10debDebFile17MemControlExtract4ReadERS_, 
                       __ZN10debDebFile17MemControlExtract6DoItemERN12pkgDirStream4ItemERi, 
                       __ZN10debDebFile17MemControlExtract7ProcessERN12pkgDirStream4ItemEPKhyy, 
                       __ZN10debDebFileC1ER6FileFd, __ZN10debDebFileC2ER6FileFd, 
                       __ZN10pkgAcqFile4DoneERKNSt3__112basic_stringIcNS0_11char_traitsIcEENS0_9allocatorIcEEEERK14HashStringListPKN10pkgAcquire12MethodConfigE, 
                       __ZN10pkgAcqFileC1EP10pkgAcquireRKNSt3__112basic_stringIcNS2_11char_traitsIcEENS2_9allocatorIcEEEERK14HashStringListySA_SA_SA_SA_b, 
                       __ZN10pkgAcqFileC2EP10pkgAcquireRKNSt3__112basic_stringIcNS2_11char_traitsIcEENS2_9allocatorIcEEEERK14HashStringListySA_SA_SA_SA_b, 
                       __ZN10pkgAcqFileD0Ev, __ZN10pkgAcqFileD1Ev, __ZN10pkgAcqFileD2Ev, 
                       __ZN10pkgAcquire10WorkerStepEPNS_6WorkerE, __ZN10pkgAcquire11FetchNeededEv, 
                       __ZN10pkgAcquire11TotalNeededEv, __ZN10pkgAcquire11UriIteratorC1EPNS_5QueueE, 
                       __ZN10pkgAcquire11UriIteratorC2EPNS_5QueueE, __ZN10pkgAcquire11UriIteratorD0Ev, 
                       __ZN10pkgAcquire11UriIteratorD1Ev, __ZN10pkgAcquire11UriIteratorD2Ev, 
                       __ZN10pkgAcquire12MethodConfigC1Ev, __ZN10pkgAcquire12MethodConfigC2Ev, 
                       __ZN10pkgAcquire12MethodConfigD0Ev, __ZN10pkgAcquire12MethodConfigD1Ev, 
                       __ZN10pkgAcquire12MethodConfigD2Ev, __ZN10pkgAcquire14PartialPresentEv, 
                       __ZN10pkgAcquire3AddEPNS_4ItemE, __ZN10pkgAcquire3AddEPNS_6WorkerE, 
                       __ZN10pkgAcquire3RunEi, __ZN10pkgAcquire4BumpEv, __ZN10pkgAcquire4Item10VerifyDoneERKNSt3__112basic_stringIcNS1_11char_traitsIcEENS1_9allocatorIcEEEEPKNS_12MethodConfigE, 
                       __ZN10pkgAcquire4Item11GetItemDescEv, __ZN10pkgAcquire4Item13RenameOnErrorENS0_18RenameOnErrorStateE, 
                       __ZN10pkgAcquire4Item19SetActiveSubprocessERKNSt3__112basic_stringIcNS1_11char_traitsIcEENS1_9allocatorIcEEEE, 
                       __ZN10pkgAcquire4Item4DoneERKNSt3__112basic_stringIcNS1_11char_traitsIcEENS1_9allocatorIcEEEERK14HashStringListPKNS_12MethodConfigE, 
                       __ZN10pkgAcquire4Item5StartERKNSt3__112basic_stringIcNS1_11char_traitsIcEENS1_9allocatorIcEEEEy, 
                       __ZN10pkgAcquire4Item6FailedERKNSt3__112basic_stringIcNS1_11char_traitsIcEENS1_9allocatorIcEEEEPKNS_12MethodConfigE, 
                       __ZN10pkgAcquire4Item6RenameERKNSt3__112basic_stringIcNS1_11char_traitsIcEENS1_9allocatorIcEEEES9_, 
                       __ZN10pkgAcquire4Item7DequeueEv, __ZN10pkgAcquire4Item8FinishedEv, 
                       __ZN10pkgAcquire4Item8QueueURIERNS_8ItemDescE, __ZN10pkgAcquire4ItemC2EPS_, 
                       __ZN10pkgAcquire4ItemD0Ev, __ZN10pkgAcquire4ItemD1Ev, __ZN10pkgAcquire4ItemD2Ev, 
                       __ZN10pkgAcquire5CleanENSt3__112basic_stringIcNS0_11char_traitsIcEENS0_9allocatorIcEEEE, 
                       __ZN10pkgAcquire5Queue4BumpEv, __ZN10pkgAcquire5Queue5CycleEv, 
                       __ZN10pkgAcquire5Queue7DequeueEPNS_4ItemE, __ZN10pkgAcquire5Queue7EnqueueERNS_8ItemDescE, 
                       __ZN10pkgAcquire5Queue7StartupEv, __ZN10pkgAcquire5Queue8FindItemENSt3__112basic_stringIcNS1_11char_traitsIcEENS1_9allocatorIcEEEEPNS_6WorkerE, 
                       __ZN10pkgAcquire5Queue8ItemDoneEPNS0_5QItemE, __ZN10pkgAcquire5Queue8ShutdownEb, 
                       __ZN10pkgAcquire5QueueC1ERKNSt3__112basic_stringIcNS1_11char_traitsIcEENS1_9allocatorIcEEEEPS_, 
                       __ZN10pkgAcquire5QueueC2ERKNSt3__112basic_stringIcNS1_11char_traitsIcEENS1_9allocatorIcEEEEPS_, 
                       __ZN10pkgAcquire5QueueD0Ev, __ZN10pkgAcquire5QueueD1Ev, __ZN10pkgAcquire5QueueD2Ev, 
                       __ZN10pkgAcquire6RemoveEPNS_4ItemE, __ZN10pkgAcquire6RemoveEPNS_6WorkerE, 
                       __ZN10pkgAcquire6RunFdsEP6fd_setS1_, __ZN10pkgAcquire6SetFdsERiP6fd_setS2_, 
                       __ZN10pkgAcquire6UriEndEv, __ZN10pkgAcquire6Worker10OutFdReadyEv, 
                       __ZN10pkgAcquire6Worker11MediaChangeENSt3__112basic_stringIcNS1_11char_traitsIcEENS1_9allocatorIcEEEE, 
                       __ZN10pkgAcquire6Worker11RunMessagesEv, __ZN10pkgAcquire6Worker12CapabilitiesENSt3__112basic_stringIcNS1_11char_traitsIcEENS1_9allocatorIcEEEE, 
                       __ZN10pkgAcquire6Worker12ReadMessagesEv, __ZN10pkgAcquire6Worker13MethodFailureEv, 
                       __ZN10pkgAcquire6Worker17SendConfigurationEv, __ZN10pkgAcquire6Worker5PulseEv, 
                       __ZN10pkgAcquire6Worker5StartEv, __ZN10pkgAcquire6Worker8ItemDoneEv, 
                       __ZN10pkgAcquire6Worker9ConstructEv, __ZN10pkgAcquire6Worker9InFdReadyEv, 
                       __ZN10pkgAcquire6Worker9QueueItemEPNS_5Queue5QItemE, __ZN10pkgAcquire6WorkerC1EPNS_12MethodConfigE, 
                       __ZN10pkgAcquire6WorkerC1EPNS_5QueueEPNS_12MethodConfigEP16pkgAcquireStatus, 
                       __ZN10pkgAcquire6WorkerC2EPNS_12MethodConfigE, __ZN10pkgAcquire6WorkerC2EPNS_5QueueEPNS_12MethodConfigEP16pkgAcquireStatus, 
                       __ZN10pkgAcquire6WorkerD0Ev, __ZN10pkgAcquire6WorkerD1Ev, 
                       __ZN10pkgAcquire6WorkerD2Ev, __ZN10pkgAcquire7DequeueEPNS_4ItemE, 
                       __ZN10pkgAcquire7EnqueueERNS_8ItemDescE, __ZN10pkgAcquire7GetLockERKNSt3__112basic_stringIcNS0_11char_traitsIcEENS0_9allocatorIcEEEE, 
                       __ZN10pkgAcquire8ShutdownEv, __ZN10pkgAcquire8UriBeginEv, 
                       __ZN10pkgAcquire9GetConfigENSt3__112basic_stringIcNS0_11char_traitsIcEENS0_9allocatorIcEEEE, 
                       __ZN10pkgAcquire9QueueNameENSt3__112basic_stringIcNS0_11char_traitsIcEENS0_9allocatorIcEEEERPKNS_12MethodConfigE, 
                       __ZN10pkgAcquireC1EP16pkgAcquireStatus, __ZN10pkgAcquireC1Ev, 
                       __ZN10pkgAcquireC2EP16pkgAcquireStatus, __ZN10pkgAcquireC2Ev, 
                       __ZN10pkgAcquireD0Ev, __ZN10pkgAcquireD1Ev, __ZN10pkgAcquireD2Ev, 
                       __ZN10pkgRecords6LookupERKN8pkgCache15VerFileIteratorE, __ZN10pkgRecords6LookupERKN8pkgCache16DescFileIteratorE, 
                       __ZN10pkgRecords6ParserC2Ev, __ZN10pkgRecords6ParserD0Ev, 
                       __ZN10pkgRecords6ParserD1Ev, __ZN10pkgRecords6ParserD2Ev, 
                       __ZN10pkgRecordsC1ER8pkgCache, __ZN10pkgRecordsC2ER8pkgCache, 
                       __ZN10pkgRecordsD0Ev, __ZN10pkgRecordsD1Ev, __ZN10pkgRecordsD2Ev, 
                       __ZN10pkgTagFile4InitEP6FileFdNS_5FlagsEy, __ZN10pkgTagFile4InitEP6FileFdy, 
                       __ZN10pkgTagFile4JumpER13pkgTagSectiony, __ZN10pkgTagFile4StepER13pkgTagSection, 
                       __ZN10pkgTagFile6OffsetEv, __ZN10pkgTagFileC1EP6FileFdNS_5FlagsEy, 
                       __ZN10pkgTagFileC1EP6FileFdy, __ZN10pkgTagFileC2EP6FileFdNS_5FlagsEy, 
                       __ZN10pkgTagFileC2EP6FileFdy, __ZN10pkgTagFileD0Ev, __ZN10pkgTagFileD1Ev, 
                       __ZN10pkgTagFileD2Ev, __ZN11CommandLine10GetCommandEPKNS_8DispatchEjPKPKc, 
                       __ZN11CommandLine11DispatchArgEPKNS_8DispatchEb, __ZN11CommandLine12SaveInConfigERKjPKPKc, 
                       __ZN11CommandLine5ParseEiPPKc, __ZN11CommandLine8MakeArgsEcPKcS1_m, 
                       __ZN11CommandLine9HandleOptERiiPPKcRS2_PNS_4ArgsEb, __ZN11CommandLineC1EPNS_4ArgsEP13Configuration, 
                       __ZN11CommandLineC1Ev, __ZN11CommandLineC2EPNS_4ArgsEP13Configuration, 
                       __ZN11CommandLineC2Ev, __ZN11CommandLineD1Ev, __ZN11CommandLineD2Ev, 
                       __ZN11GlobalError10DumpErrorsERNSt3__113basic_ostreamIcNS0_11char_traitsIcEEEERKNS_7MsgTypeERKb, 
                       __ZN11GlobalError10PopMessageERNSt3__112basic_stringIcNS0_11char_traitsIcEENS0_9allocatorIcEEEE, 
                       __ZN11GlobalError11InsertErrnoENS_7MsgTypeEPKcS2_RPciRm, __ZN11GlobalError11InsertErrnoERKNS_7MsgTypeEPKcS4_z, 
                       __ZN11GlobalError11PushToStackEv, __ZN11GlobalError13RevertToStackEv, 
                       __ZN11GlobalError14MergeWithStackEv, __ZN11GlobalError5DebugEPKcz, 
                       __ZN11GlobalError5ErrnoEPKcS1_z, __ZN11GlobalError5ErrorEPKcz, 
                       __ZN11GlobalError5FatalEPKcz, __ZN11GlobalError6DebugEEPKcS1_z, 
                       __ZN11GlobalError6FatalEEPKcS1_z, __ZN11GlobalError6InsertENS_7MsgTypeEPKcRPcRm, 
                       __ZN11GlobalError6InsertERKNS_7MsgTypeEPKcz, __ZN11GlobalError6NoticeEPKcz, 
                       __ZN11GlobalError7DiscardEv, __ZN11GlobalError7NoticeEEPKcS1_z, 
                       __ZN11GlobalError7WarningEPKcz, __ZN11GlobalError8WarningEEPKcS1_z, 
                       __ZN11GlobalErrorC1Ev, __ZN11GlobalErrorC2Ev, __ZN11IndexTargetC1ERKNSt3__112basic_stringIcNS0_11char_traitsIcEENS0_9allocatorIcEEEES8_S8_S8_bbRKNS0_3mapIS6_S6_NS0_4lessIS6_EENS4_INS0_4pairIS7_S6_EEEEEE, 
                       __ZN11IndexTargetC2ERKNSt3__112basic_stringIcNS0_11char_traitsIcEENS0_9allocatorIcEEEES8_S8_S8_bbRKNS0_3mapIS6_S6_NS0_4lessIS6_EENS4_INS0_4pairIS7_S6_EEEEEE, 
                       __ZN11PackageCopy12RewriteEntryER6FileFdRKNSt3__112basic_stringIcNS2_11char_traitsIcEENS2_9allocatorIcEEEE, 
                       __ZN11PackageCopy7GetFileERNSt3__112basic_stringIcNS0_11char_traitsIcEENS0_9allocatorIcEEEERy, 
                       __ZN11PackageCopyC1Ev, __ZN11PackageCopyC2Ev, __ZN11PackageCopyD0Ev, 
                       __ZN11PackageCopyD1Ev, __ZN11PackageCopyD2Ev, __ZN11pkgDepCache10IsDeleteOkERKN8pkgCache11PkgIteratorEbmb, 
                       __ZN11pkgDepCache10MarkDeleteERKN8pkgCache11PkgIteratorEbmb, 
                       __ZN11pkgDepCache10StateCache6UpdateEN8pkgCache11PkgIteratorERS1_, 
                       __ZN11pkgDepCache11ActionGroup7releaseEv, __ZN11pkgDepCache11ActionGroupC1ERS_, 
                       __ZN11pkgDepCache11ActionGroupC2ERS_, __ZN11pkgDepCache11ActionGroupD0Ev, 
                       __ZN11pkgDepCache11ActionGroupD1Ev, __ZN11pkgDepCache11ActionGroupD2Ev, 
                       __ZN11pkgDepCache11IsInstallOkERKN8pkgCache11PkgIteratorEbmb, 
                       __ZN11pkgDepCache11MarkInstallERKN8pkgCache11PkgIteratorEbmbb, 
                       __ZN11pkgDepCache12MarkAndSweepERNS_13InRootSetFuncE, __ZN11pkgDepCache12MarkAndSweepEv, 
                       __ZN11pkgDepCache12MarkRequiredERNS_13InRootSetFuncE, __ZN11pkgDepCache12SetReInstallERKN8pkgCache11PkgIteratorEb, 
                       __ZN11pkgDepCache13BuildGroupOrsERKN8pkgCache11VerIteratorE, 
                       __ZN11pkgDepCache13readStateFileEP10OpProgress, __ZN11pkgDepCache14GetRootSetFuncEv, 
                       __ZN11pkgDepCache14UpdateVerStateERKN8pkgCache11PkgIteratorE, 
                       __ZN11pkgDepCache14writeStateFileEP10OpProgressb, __ZN11pkgDepCache15DependencyStateERKN8pkgCache11DepIteratorE, 
                       __ZN11pkgDepCache16CheckConsistencyEPKc, __ZN11pkgDepCache19GetCandidateVersionERKN8pkgCache11PkgIteratorE, 
                       __ZN11pkgDepCache19MarkFollowsSuggestsEv, __ZN11pkgDepCache19SetCandidateReleaseEN8pkgCache11VerIteratorERKNSt3__112basic_stringIcNS2_11char_traitsIcEENS2_9allocatorIcEEEE, 
                       __ZN11pkgDepCache19SetCandidateReleaseEN8pkgCache11VerIteratorERKNSt3__112basic_stringIcNS2_11char_traitsIcEENS2_9allocatorIcEEEERNS2_4listINS2_4pairIS1_S1_EENS6_ISD_EEEE, 
                       __ZN11pkgDepCache19SetCandidateVersionEN8pkgCache11VerIteratorE, 
                       __ZN11pkgDepCache21MarkFollowsRecommendsEv, __ZN11pkgDepCache32IsDeleteOkProtectInstallRequestsERKN8pkgCache11PkgIteratorEbmb, 
                       __ZN11pkgDepCache37IsInstallOkMultiArchSameVersionSyncedERKN8pkgCache11PkgIteratorEbmb, 
                       __ZN11pkgDepCache46IsInstallOkDependenciesSatisfiableByCandidatesERKN8pkgCache11PkgIteratorEbmb, 
                       __ZN11pkgDepCache4InitEP10OpProgress, __ZN11pkgDepCache5SweepEv, 
                       __ZN11pkgDepCache6Policy11GetPriorityERKN8pkgCache11PkgIteratorE, 
                       __ZN11pkgDepCache6Policy11GetPriorityERKN8pkgCache11VerIteratorEb, 
                       __ZN11pkgDepCache6Policy11GetPriorityERKN8pkgCache15PkgFileIteratorE, 
                       __ZN11pkgDepCache6Policy15GetCandidateVerERKN8pkgCache11PkgIteratorE, 
                       __ZN11pkgDepCache6UpdateEN8pkgCache11DepIteratorE, __ZN11pkgDepCache6UpdateEP10OpProgress, 
                       __ZN11pkgDepCache6UpdateERKN8pkgCache11PkgIteratorE, __ZN11pkgDepCache8AddSizesERKN8pkgCache11PkgIteratorEb, 
                       __ZN11pkgDepCache8CheckDepERKN8pkgCache11DepIteratorEiRNS0_11PkgIteratorE, 
                       __ZN11pkgDepCache8MarkAutoERKN8pkgCache11PkgIteratorEb, __ZN11pkgDepCache8MarkKeepERKN8pkgCache11PkgIteratorEbbm, 
                       __ZN11pkgDepCache9AddStatesERKN8pkgCache11PkgIteratorEb, __ZN11pkgDepCacheC1EP8pkgCachePNS_6PolicyE, 
                       __ZN11pkgDepCacheC2EP8pkgCachePNS_6PolicyE, __ZN11pkgDepCacheD0Ev, 
                       __ZN11pkgDepCacheD1Ev, __ZN11pkgDepCacheD2Ev, __ZN11pkgSimulate2GoEPN3APT8Progress14PackageManagerE, 
                       __ZN11pkgSimulate6RemoveEN8pkgCache11PkgIteratorEb, __ZN11pkgSimulate7InstallEN8pkgCache11PkgIteratorENSt3__112basic_stringIcNS2_11char_traitsIcEENS2_9allocatorIcEEEE, 
                       __ZN11pkgSimulate9ConfigureEN8pkgCache11PkgIteratorE, __ZN11pkgSimulateC1EP11pkgDepCache, 
                       __ZN11pkgSimulateC2EP11pkgDepCache, __ZN11pkgSimulateD0Ev, 
                       __ZN11pkgSimulateD1Ev, __ZN11pkgSimulateD2Ev, __ZN12pkgAcqMethod11FetchResult10TakeHashesER6Hashes, 
                       __ZN12pkgAcqMethod11FetchResultC1Ev, __ZN12pkgAcqMethod11FetchResultC2Ev, 
                       __ZN12pkgAcqMethod11FetchResultD0Ev, __ZN12pkgAcqMethod11FetchResultD1Ev, 
                       __ZN12pkgAcqMethod11FetchResultD2Ev, __ZN12pkgAcqMethod11SendMessageERKNSt3__112basic_stringIcNS0_11char_traitsIcEENS0_9allocatorIcEEEEONS0_13unordered_mapIS6_S6_NS0_4hashIS6_EENS0_8equal_toIS6_EENS4_INS0_4pairIS7_S6_EEEEEE, 
                       __ZN12pkgAcqMethod13ConfigurationENSt3__112basic_stringIcNS0_11char_traitsIcEENS0_9allocatorIcEEEE, 
                       __ZN12pkgAcqMethod14DropPrivsOrDieEv, __ZN12pkgAcqMethod3LogEPKcz, 
                       __ZN12pkgAcqMethod3RunEb, __ZN12pkgAcqMethod4FailENSt3__112basic_stringIcNS0_11char_traitsIcEENS0_9allocatorIcEEEEb, 
                       __ZN12pkgAcqMethod4FailEb, __ZN12pkgAcqMethod6StatusEPKcz, 
                       __ZN12pkgAcqMethod7URIDoneERNS_11FetchResultEPS0_, __ZN12pkgAcqMethod8RedirectERKNSt3__112basic_stringIcNS0_11char_traitsIcEENS0_9allocatorIcEEEE, 
                       __ZN12pkgAcqMethod8URIStartERNS_11FetchResultE, __ZN12pkgAcqMethod9FetchItem5ProxyEv, 
                       __ZN12pkgAcqMethod9FetchItemC1Ev, __ZN12pkgAcqMethod9FetchItemC2Ev, 
                       __ZN12pkgAcqMethod9FetchItemD0Ev, __ZN12pkgAcqMethod9FetchItemD1Ev, 
                       __ZN12pkgAcqMethod9FetchItemD2Ev, __ZN12pkgAcqMethod9MediaFailENSt3__112basic_stringIcNS0_11char_traitsIcEENS0_9allocatorIcEEEES6_, 
                       __ZN12pkgAcqMethodC1EPKcm, __ZN12pkgAcqMethodC2EPKcm, __ZN12pkgAcqMethodD0Ev, 
                       __ZN12pkgAcqMethodD1Ev, __ZN12pkgAcqMethodD2Ev, __ZN12pkgCacheFile11BuildCachesEP10OpProgressb, 
                       __ZN12pkgCacheFile11BuildPolicyEP10OpProgress, __ZN12pkgCacheFile12AddIndexFileEP12pkgIndexFile, 
                       __ZN12pkgCacheFile12RemoveCachesEv, __ZN12pkgCacheFile13BuildDepCacheEP10OpProgress, 
                       __ZN12pkgCacheFile15BuildSourceListEP10OpProgress, __ZN12pkgCacheFile4OpenEP10OpProgressb, 
                       __ZN12pkgCacheFile5CloseEv, __ZN12pkgCacheFileC1EP11pkgDepCache, 
                       __ZN12pkgCacheFileC1Ev, __ZN12pkgCacheFileC2EP11pkgDepCache, 
                       __ZN12pkgCacheFileC2Ev, __ZN12pkgCacheFileD0Ev, __ZN12pkgCacheFileD1Ev, 
                       __ZN12pkgCacheFileD2Ev, __ZN12pkgDirStream12FinishedFileERNS_4ItemEi, 
                       __ZN12pkgDirStream4FailERNS_4ItemEi, __ZN12pkgDirStream6DoItemERNS_4ItemERi, 
                       __ZN12pkgIndexFile4Type10GlobalListE, __ZN12pkgIndexFile4Type13GlobalListLenE, 
                       __ZN12pkgIndexFile4Type7GetTypeEPKc, __ZN12pkgIndexFile4TypeC1Ev, 
                       __ZN12pkgIndexFile4TypeC2Ev, __ZN12pkgIndexFileC2Eb, __ZN12pkgIndexFileD0Ev, 
                       __ZN12pkgIndexFileD1Ev, __ZN12pkgIndexFileD2Ev, __ZN12pkgOrderList10VisitRDepsEMS_FbN8pkgCache11DepIteratorEENS0_11PkgIteratorE, 
                       __ZN12pkgOrderList11OrderUnpackEPNSt3__112basic_stringIcNS0_11char_traitsIcEENS0_9allocatorIcEEEE, 
                       __ZN12pkgOrderList12DepConfigureEN8pkgCache11DepIteratorE, 
                       __ZN12pkgOrderList12DepUnPackDepEN8pkgCache11DepIteratorE, 
                       __ZN12pkgOrderList12DepUnPackPreEN8pkgCache11DepIteratorE, 
                       __ZN12pkgOrderList13DepUnPackCritEN8pkgCache11DepIteratorE, 
                       __ZN12pkgOrderList13DepUnPackPreDEN8pkgCache11DepIteratorE, 
                       __ZN12pkgOrderList13OrderCompareAEPN8pkgCache7PackageES2_, 
                       __ZN12pkgOrderList13OrderCompareBEPN8pkgCache7PackageES2_, 
                       __ZN12pkgOrderList13OrderCriticalEv, __ZN12pkgOrderList13VisitProvidesEN8pkgCache11DepIteratorEb, 
                       __ZN12pkgOrderList14OrderConfigureEv, __ZN12pkgOrderList14VisitRProvidesEMS_FbN8pkgCache11DepIteratorEENS0_11VerIteratorE, 
                       __ZN12pkgOrderList5DoRunEv, __ZN12pkgOrderList5ScoreEN8pkgCache11PkgIteratorE, 
                       __ZN12pkgOrderList7AddLoopEN8pkgCache11DepIteratorE, __ZN12pkgOrderList7FileCmpEN8pkgCache11PkgIteratorES1_, 
                       __ZN12pkgOrderList8CheckDepEN8pkgCache11DepIteratorE, __ZN12pkgOrderList9DepRemoveEN8pkgCache11DepIteratorE, 
                       __ZN12pkgOrderList9IsMissingEN8pkgCache11PkgIteratorE, __ZN12pkgOrderList9VisitDepsEMS_FbN8pkgCache11DepIteratorEENS0_11PkgIteratorE, 
                       __ZN12pkgOrderList9VisitNodeEN8pkgCache11PkgIteratorEPKc, 
                       __ZN12pkgOrderList9WipeFlagsEm, __ZN12pkgOrderListC1EP11pkgDepCache, 
                       __ZN12pkgOrderListC2EP11pkgDepCache, __ZN12pkgOrderListD0Ev, 
                       __ZN12pkgOrderListD1Ev, __ZN12pkgOrderListD2Ev, __ZN13Configuration11MoveSubTreeEPKcS1_, 
                       __ZN13Configuration18MatchAgainstConfigC1EPKc, __ZN13Configuration18MatchAgainstConfigC2EPKc, 
                       __ZN13Configuration18MatchAgainstConfigD0Ev, __ZN13Configuration18MatchAgainstConfigD1Ev, 
                       __ZN13Configuration18MatchAgainstConfigD2Ev, __ZN13Configuration3SetEPKcRKNSt3__112basic_stringIcNS2_11char_traitsIcEENS2_9allocatorIcEEEE, 
                       __ZN13Configuration3SetEPKcRKi, __ZN13Configuration4DumpERNSt3__113basic_ostreamIcNS0_11char_traitsIcEEEE, 
                       __ZN13Configuration4DumpERNSt3__113basic_ostreamIcNS0_11char_traitsIcEEEEPKcS7_b, 
                       __ZN13Configuration5ClearERKNSt3__112basic_stringIcNS0_11char_traitsIcEENS0_9allocatorIcEEEE, 
                       __ZN13Configuration5ClearERKNSt3__112basic_stringIcNS0_11char_traitsIcEENS0_9allocatorIcEEEERKi, 
                       __ZN13Configuration5ClearERKNSt3__112basic_stringIcNS0_11char_traitsIcEENS0_9allocatorIcEEEES8_, 
                       __ZN13Configuration5ClearEv, __ZN13Configuration6CndSetEPKcRKNSt3__112basic_stringIcNS2_11char_traitsIcEENS2_9allocatorIcEEEE, 
                       __ZN13Configuration6CndSetEPKci, __ZN13Configuration6LookupEPKcRKb, 
                       __ZN13Configuration6LookupEPNS_4ItemEPKcRKmRKb, __ZN13ConfigurationC1EPKNS_4ItemE, 
                       __ZN13ConfigurationC1Ev, __ZN13ConfigurationC2EPKNS_4ItemE, 
                       __ZN13ConfigurationC2Ev, __ZN13ConfigurationD1Ev, __ZN13ConfigurationD2Ev, 
                       __ZN13debListParser12ParseDependsEPKcS1_RN3APT10StringViewES4_RjbbbNSt3__112basic_stringIcNS6_11char_traitsIcEENS6_9allocatorIcEEEE, 
                       __ZN13debListParser12ParseDependsEPKcS1_RNSt3__112basic_stringIcNS2_11char_traitsIcEENS2_9allocatorIcEEEES9_RjRKbSC_SC_RKS8_, 
                       __ZN13debListParser15ConvertRelationEPKcRj, __ZN13debListParser7GetPrioENSt3__112basic_stringIcNS0_11char_traitsIcEENS0_9allocatorIcEEEE, 
                       __ZN13pkgAcqArchive4DoneERKNSt3__112basic_stringIcNS0_11char_traitsIcEENS0_9allocatorIcEEEERK14HashStringListPKN10pkgAcquire12MethodConfigE, 
                       __ZN13pkgAcqArchive6FailedERKNSt3__112basic_stringIcNS0_11char_traitsIcEENS0_9allocatorIcEEEEPKN10pkgAcquire12MethodConfigE, 
                       __ZN13pkgAcqArchive8FinishedEv, __ZN13pkgAcqArchive9QueueNextEv, 
                       __ZN13pkgAcqArchiveC1EP10pkgAcquireP13pkgSourceListP10pkgRecordsRKN8pkgCache11VerIteratorERNSt3__112basic_stringIcNSA_11char_traitsIcEENSA_9allocatorIcEEEE, 
                       __ZN13pkgAcqArchiveC2EP10pkgAcquireP13pkgSourceListP10pkgRecordsRKN8pkgCache11VerIteratorERNSt3__112basic_stringIcNSA_11char_traitsIcEENSA_9allocatorIcEEEE, 
                       __ZN13pkgAcqArchiveD0Ev, __ZN13pkgAcqArchiveD1Ev, __ZN13pkgAcqArchiveD2Ev, 
                       __ZN13pkgSourceList10ReadAppendERKNSt3__112basic_stringIcNS0_11char_traitsIcEENS0_9allocatorIcEEEE, 
                       __ZN13pkgSourceList12ReadMainListEv, __ZN13pkgSourceList13ReadSourceDirERKNSt3__112basic_stringIcNS0_11char_traitsIcEENS0_9allocatorIcEEEE, 
                       __ZN13pkgSourceList15AddVolatileFileEP12pkgIndexFile, __ZN13pkgSourceList15AddVolatileFileERKNSt3__112basic_stringIcNS0_11char_traitsIcEENS0_9allocatorIcEEEE, 
                       __ZN13pkgSourceList15AddVolatileFileERKNSt3__112basic_stringIcNS0_11char_traitsIcEENS0_9allocatorIcEEEEPNS0_6vectorIS6_NS4_IS6_EEEE, 
                       __ZN13pkgSourceList16AddVolatileFilesER11CommandLinePNSt3__16vectorINS2_12basic_stringIcNS2_11char_traitsIcEENS2_9allocatorIcEEEENS7_IS9_EEEE, 
                       __ZN13pkgSourceList19GetLastModifiedTimeEv, __ZN13pkgSourceList4ReadERKNSt3__112basic_stringIcNS0_11char_traitsIcEENS0_9allocatorIcEEEE, 
                       __ZN13pkgSourceList4Type10GlobalListE, __ZN13pkgSourceList4Type11ParseStanzaERNSt3__16vectorIP9metaIndexNS1_9allocatorIS4_EEEER13pkgTagSectionjR6FileFd, 
                       __ZN13pkgSourceList4Type13GlobalListLenE, __ZN13pkgSourceList4Type7GetTypeEPKc, 
                       __ZN13pkgSourceList4TypeC2EPKcS2_, __ZN13pkgSourceList4TypeD0Ev, 
                       __ZN13pkgSourceList4TypeD1Ev, __ZN13pkgSourceList4TypeD2Ev, 
                       __ZN13pkgSourceList5ResetEv, __ZN13pkgSourceListC1Ev, __ZN13pkgSourceListC2Ev, 
                       __ZN13pkgSourceListD0Ev, __ZN13pkgSourceListD1Ev, __ZN13pkgSourceListD2Ev, 
                       __ZN13pkgSrcRecords4FindEPKcRKb, __ZN13pkgSrcRecords4StepEv, 
                       __ZN13pkgSrcRecords6Parser12BuildDepTypeERKh, __ZN13pkgSrcRecords6ParserC2EPK12pkgIndexFile, 
                       __ZN13pkgSrcRecords6ParserD0Ev, __ZN13pkgSrcRecords6ParserD1Ev, 
                       __ZN13pkgSrcRecords6ParserD2Ev, __ZN13pkgSrcRecords7RestartEv, 
                       __ZN13pkgSrcRecordsC1ER13pkgSourceList, __ZN13pkgSrcRecordsC2ER13pkgSourceList, 
                       __ZN13pkgSrcRecordsD0Ev, __ZN13pkgSrcRecordsD1Ev, __ZN13pkgSrcRecordsD2Ev, 
                       __ZN13pkgTagSection10TrimRecordEbRPKc, __ZN13pkgTagSection3Tag6RemoveERKNSt3__112basic_stringIcNS1_11char_traitsIcEENS1_9allocatorIcEEEE, 
                       __ZN13pkgTagSection3Tag6RenameERKNSt3__112basic_stringIcNS1_11char_traitsIcEENS1_9allocatorIcEEEES9_, 
                       __ZN13pkgTagSection3Tag7RewriteERKNSt3__112basic_stringIcNS1_11char_traitsIcEENS1_9allocatorIcEEEES9_, 
                       __ZN13pkgTagSection4ScanEPKcmb, __ZN13pkgTagSection4TrimEv, 
                       __ZN13pkgTagSection8FindFlagERhhPKcS2_, __ZN13pkgTagSection8FindFlagERmmPKcS2_, 
                       __ZN13pkgTagSectionC1Ev, __ZN13pkgTagSectionC2Ev, __ZN13pkgTagSectionD0Ev, 
                       __ZN13pkgTagSectionD1Ev, __ZN13pkgTagSectionD2Ev, __ZN14HashStringList8FileSizeEy, 
                       __ZN14HashStringList9push_backERK10HashString, __ZN14HashStringList9supportedEPKc, 
                       __ZN14OpTextProgress4DoneEv, __ZN14OpTextProgress5WriteEPKc, 
                       __ZN14OpTextProgress6UpdateEv, __ZN14OpTextProgressC1ER13Configuration, 
                       __ZN14OpTextProgressC2ER13Configuration, __ZN14pkgCdromStatusC2Ev, 
                       __ZN14pkgCdromStatusD0Ev, __ZN14pkgCdromStatusD1Ev, __ZN14pkgCdromStatusD2Ev, 
                       __ZN15debDscFileIndexC1ERKNSt3__112basic_stringIcNS0_11char_traitsIcEENS0_9allocatorIcEEEE, 
                       __ZN15debDscFileIndexC2ERKNSt3__112basic_stringIcNS0_11char_traitsIcEENS0_9allocatorIcEEEE, 
                       __ZN15debDscFileIndexD0Ev, __ZN15debDscFileIndexD1Ev, __ZN15debDscFileIndexD2Ev, 
                       __ZN15pkgAcqChangelog11URITemplateERKN8pkgCache15RlsFileIteratorE, 
                       __ZN15pkgAcqChangelog3URIERKN8pkgCache11VerIteratorE, __ZN15pkgAcqChangelog3URIERKN8pkgCache15RlsFileIteratorEPKcS5_S5_, 
                       __ZN15pkgAcqChangelog3URIERKNSt3__112basic_stringIcNS0_11char_traitsIcEENS0_9allocatorIcEEEEPKcSA_SA_, 
                       __ZN15pkgAcqChangelog4DoneERKNSt3__112basic_stringIcNS0_11char_traitsIcEENS0_9allocatorIcEEEERK14HashStringListPKN10pkgAcquire12MethodConfigE, 
                       __ZN15pkgAcqChangelog6FailedERKNSt3__112basic_stringIcNS0_11char_traitsIcEENS0_9allocatorIcEEEEPKN10pkgAcquire12MethodConfigE, 
                       __ZN15pkgAcqChangelogC1EP10pkgAcquireRKN8pkgCache11VerIteratorERKNSt3__112basic_stringIcNS6_11char_traitsIcEENS6_9allocatorIcEEEESE_, 
                       __ZN15pkgAcqChangelogC1EP10pkgAcquireRKN8pkgCache15RlsFileIteratorEPKcS7_S7_RKNSt3__112basic_stringIcNS8_11char_traitsIcEENS8_9allocatorIcEEEESG_, 
                       __ZN15pkgAcqChangelogC1EP10pkgAcquireRKNSt3__112basic_stringIcNS2_11char_traitsIcEENS2_9allocatorIcEEEEPKcSC_SA_SA_, 
                       __ZN15pkgAcqChangelogC2EP10pkgAcquireRKN8pkgCache11VerIteratorERKNSt3__112basic_stringIcNS6_11char_traitsIcEENS6_9allocatorIcEEEESE_, 
                       __ZN15pkgAcqChangelogC2EP10pkgAcquireRKN8pkgCache15RlsFileIteratorEPKcS7_S7_RKNSt3__112basic_stringIcNS8_11char_traitsIcEENS8_9allocatorIcEEEESG_, 
                       __ZN15pkgAcqChangelogC2EP10pkgAcquireRKNSt3__112basic_stringIcNS2_11char_traitsIcEENS2_9allocatorIcEEEEPKcSC_SA_SA_, 
                       __ZN15pkgAcqChangelogD0Ev, __ZN15pkgAcqChangelogD1Ev, __ZN15pkgAcqChangelogD2Ev, 
                       __ZN15pkgVersionMatch14VersionMatchesEN8pkgCache11VerIteratorE, 
                       __ZN15pkgVersionMatch17ExpressionMatchesEPKcS1_, __ZN15pkgVersionMatch17ExpressionMatchesERKNSt3__112basic_stringIcNS0_11char_traitsIcEENS0_9allocatorIcEEEEPKc, 
                       __ZN15pkgVersionMatch4FindEN8pkgCache11PkgIteratorE, __ZN15pkgVersionMatch8MatchVerEPKcNSt3__112basic_stringIcNS2_11char_traitsIcEENS2_9allocatorIcEEEEb, 
                       __ZN15pkgVersionMatch9FileMatchEN8pkgCache15PkgFileIteratorE, 
                       __ZN15pkgVersionMatchC1ENSt3__112basic_stringIcNS0_11char_traitsIcEENS0_9allocatorIcEEEENS_9MatchTypeE, 
                       __ZN15pkgVersionMatchC2ENSt3__112basic_stringIcNS0_11char_traitsIcEENS0_9allocatorIcEEEENS_9MatchTypeE, 
                       __ZN16TranslationsCopy16CopyTranslationsENSt3__112basic_stringIcNS0_11char_traitsIcEENS0_9allocatorIcEEEES6_RNS0_6vectorIS6_NS4_IS6_EEEEP14pkgCdromStatus, 
                       __ZN16TranslationsCopyC1Ev, __ZN16TranslationsCopyC2Ev, __ZN16TranslationsCopyD0Ev, 
                       __ZN16TranslationsCopyD1Ev, __ZN16TranslationsCopyD2Ev, __ZN16pkgAcquireStatus18ReleaseInfoChangesEPK9metaIndexS2_ONSt3__16vectorINS_17ReleaseInfoChangeENS3_9allocatorIS5_EEEE, 
                       __ZN16pkgAcquireStatus4StopEv, __ZN16pkgAcquireStatus5PulseEP10pkgAcquire, 
                       __ZN16pkgAcquireStatus5StartEv, __ZN16pkgAcquireStatus7FetchedEyy, 
                       __ZN16pkgAcquireStatusC2Ev, __ZN16pkgAcquireStatusD0Ev, __ZN16pkgAcquireStatusD1Ev, 
                       __ZN16pkgAcquireStatusD2Ev, __ZN17pkgArchiveCleaner2GoENSt3__112basic_stringIcNS0_11char_traitsIcEENS0_9allocatorIcEEEER8pkgCache, 
                       __ZN17pkgArchiveCleanerC2Ev, __ZN17pkgArchiveCleanerD0Ev, 
                       __ZN17pkgArchiveCleanerD1Ev, __ZN17pkgArchiveCleanerD2Ev, 
                       __ZN17pkgCacheGenerator15MakeStatusCacheER13pkgSourceListP10OpProgressPP4MMapb, 
                       __ZN17pkgCacheGenerator19MakeOnlyStatusCacheEP10OpProgressPP11DynamicMMap, 
                       __ZN17pkgPackageManager10FixMissingEv, __ZN17pkgPackageManager10SigINTStopE, 
                       __ZN17pkgPackageManager11EarlyRemoveEN8pkgCache11PkgIteratorEPKNS0_11DepIteratorE, 
                       __ZN17pkgPackageManager11GetArchivesEP10pkgAcquireP13pkgSourceListP10pkgRecords, 
                       __ZN17pkgPackageManager11SmartRemoveEN8pkgCache11PkgIteratorE, 
                       __ZN17pkgPackageManager11SmartUnPackEN8pkgCache11PkgIteratorEbi, 
                       __ZN17pkgPackageManager12CheckRBreaksERKN8pkgCache11PkgIteratorENS0_11DepIteratorEPKc, 
                       __ZN17pkgPackageManager12ConfigureAllEv, __ZN17pkgPackageManager12ImmediateAddEN8pkgCache11PkgIteratorEbRKj, 
                       __ZN17pkgPackageManager12OrderInstallEv, __ZN17pkgPackageManager13DepAlwaysTrueEN8pkgCache11DepIteratorE, 
                       __ZN17pkgPackageManager14SmartConfigureEN8pkgCache11PkgIteratorEi, 
                       __ZN17pkgPackageManager15CheckRConflictsEN8pkgCache11PkgIteratorENS0_11DepIteratorEPKc, 
                       __ZN17pkgPackageManager15CreateOrderListEv, __ZN17pkgPackageManager17DoInstallPostForkEPN3APT8Progress14PackageManagerE, 
                       __ZN17pkgPackageManager9DoInstallEPN3APT8Progress14PackageManagerE, 
                       __ZN17pkgPackageManagerC1EP11pkgDepCache, __ZN17pkgPackageManagerC2EP11pkgDepCache, 
                       __ZN17pkgPackageManagerD0Ev, __ZN17pkgPackageManagerD1Ev, 
                       __ZN17pkgPackageManagerD2Ev, __ZN18pkgDebianIndexFile5MergeER17pkgCacheGeneratorP10OpProgress, 
                       __ZN18pkgDebianIndexFileC2Eb, __ZN18pkgDebianIndexFileD0Ev, 
                       __ZN18pkgDebianIndexFileD1Ev, __ZN18pkgDebianIndexFileD2Ev, 
                       __ZN18pkgProblemResolver13ResolveByKeepEP10OpProgress, __ZN18pkgProblemResolver21InstOrNewPolicyBrokenEN8pkgCache11PkgIteratorE, 
                       __ZN18pkgProblemResolver7ResolveEbP10OpProgress, __ZN18pkgProblemResolverC1EP11pkgDepCache, 
                       __ZN18pkgProblemResolverC2EP11pkgDepCache, __ZN18pkgProblemResolverD0Ev, 
                       __ZN18pkgProblemResolverD1Ev, __ZN18pkgProblemResolverD2Ev, 
                       __ZN19debVersioningSystem11CmpFragmentEPKcS1_S1_S1_, __ZN19debVersioningSystem12DoCmpVersionEPKcS1_S1_S1_, 
                       __ZN19debVersioningSystem15UpstreamVersionEPKc, __ZN19debVersioningSystem8CheckDepEPKciS1_, 
                       __ZN19debVersioningSystemC1Ev, __ZN19debVersioningSystemC2Ev, 
                       __ZN19pkgUdevCdromDevices16ScanForRemovableEb, __ZN19pkgUdevCdromDevices4ScanEv, 
                       __ZN19pkgUdevCdromDevicesC1Ev, __ZN19pkgUdevCdromDevicesC2Ev, 
                       __ZN19pkgUdevCdromDevicesD0Ev, __ZN19pkgUdevCdromDevicesD1Ev, 
                       __ZN19pkgUdevCdromDevicesD2Ev, __ZN19pkgVersioningSystem10GlobalListE, 
                       __ZN19pkgVersioningSystem13GlobalListLenE, __ZN19pkgVersioningSystem5GetVSEPKc, 
                       __ZN19pkgVersioningSystemC2Ev, __ZN19pkgVersioningSystemD0Ev, 
                       __ZN19pkgVersioningSystemD1Ev, __ZN19pkgVersioningSystemD2Ev, 
                       __ZN21debStringPackageIndexC1ERKNSt3__112basic_stringIcNS0_11char_traitsIcEENS0_9allocatorIcEEEE, 
                       __ZN21debStringPackageIndexC2ERKNSt3__112basic_stringIcNS0_11char_traitsIcEENS0_9allocatorIcEEEE, 
                       __ZN21debStringPackageIndexD0Ev, __ZN21debStringPackageIndexD1Ev, 
                       __ZN21debStringPackageIndexD2Ev, __ZN22pkgDebianIndexRealFile12OpenListFileER6FileFdRKNSt3__112basic_stringIcNS2_11char_traitsIcEENS2_9allocatorIcEEEE, 
                       __ZN22pkgDebianIndexRealFileC2ERKNSt3__112basic_stringIcNS0_11char_traitsIcEENS0_9allocatorIcEEEEb, 
                       __ZN22pkgDebianIndexRealFileD0Ev, __ZN22pkgDebianIndexRealFileD1Ev, 
                       __ZN22pkgDebianIndexRealFileD2Ev, __ZN24pkgDebianIndexTargetFile12OpenListFileER6FileFdRKNSt3__112basic_stringIcNS2_11char_traitsIcEENS2_9allocatorIcEEEE, 
                       __ZN24pkgDebianIndexTargetFileC2ERK11IndexTargetb, __ZN24pkgDebianIndexTargetFileD0Ev, 
                       __ZN24pkgDebianIndexTargetFileD1Ev, __ZN24pkgDebianIndexTargetFileD2Ev, 
                       __ZN3APT11CacheFilter10ANDMatcher3ANDEPNS0_7MatcherE, __ZN3APT11CacheFilter10ANDMatcherC1EPNS0_7MatcherE, 
                       __ZN3APT11CacheFilter10ANDMatcherC1EPNS0_7MatcherES3_, __ZN3APT11CacheFilter10ANDMatcherC1EPNS0_7MatcherES3_S3_, 
                       __ZN3APT11CacheFilter10ANDMatcherC1EPNS0_7MatcherES3_S3_S3_, 
                       __ZN3APT11CacheFilter10ANDMatcherC1EPNS0_7MatcherES3_S3_S3_S3_, 
                       __ZN3APT11CacheFilter10ANDMatcherC1Ev, __ZN3APT11CacheFilter10ANDMatcherC2EPNS0_7MatcherE, 
                       __ZN3APT11CacheFilter10ANDMatcherC2EPNS0_7MatcherES3_, __ZN3APT11CacheFilter10ANDMatcherC2EPNS0_7MatcherES3_S3_, 
                       __ZN3APT11CacheFilter10ANDMatcherC2EPNS0_7MatcherES3_S3_S3_, 
                       __ZN3APT11CacheFilter10ANDMatcherC2EPNS0_7MatcherES3_S3_S3_S3_, 
                       __ZN3APT11CacheFilter10ANDMatcherC2Ev, __ZN3APT11CacheFilter10ANDMatcherD0Ev, 
                       __ZN3APT11CacheFilter10ANDMatcherD1Ev, __ZN3APT11CacheFilter10ANDMatcherD2Ev, 
                       __ZN3APT11CacheFilter10ANDMatcherclERKN8pkgCache11GrpIteratorE, 
                       __ZN3APT11CacheFilter10ANDMatcherclERKN8pkgCache11PkgIteratorE, 
                       __ZN3APT11CacheFilter10ANDMatcherclERKN8pkgCache11VerIteratorE, 
                       __ZN3APT11CacheFilter10NOTMatcherC1EPNS0_7MatcherE, __ZN3APT11CacheFilter10NOTMatcherC2EPNS0_7MatcherE, 
                       __ZN3APT11CacheFilter10NOTMatcherD0Ev, __ZN3APT11CacheFilter10NOTMatcherD1Ev, 
                       __ZN3APT11CacheFilter10NOTMatcherD2Ev, __ZN3APT11CacheFilter10NOTMatcherclERKN8pkgCache11GrpIteratorE, 
                       __ZN3APT11CacheFilter10NOTMatcherclERKN8pkgCache11PkgIteratorE, 
                       __ZN3APT11CacheFilter10NOTMatcherclERKN8pkgCache11VerIteratorE, 
                       __ZN3APT11CacheFilter11TrueMatcherclERKN8pkgCache11GrpIteratorE, 
                       __ZN3APT11CacheFilter11TrueMatcherclERKN8pkgCache11PkgIteratorE, 
                       __ZN3APT11CacheFilter11TrueMatcherclERKN8pkgCache11VerIteratorE, 
                       __ZN3APT11CacheFilter12FalseMatcherclERKN8pkgCache11GrpIteratorE, 
                       __ZN3APT11CacheFilter12FalseMatcherclERKN8pkgCache11PkgIteratorE, 
                       __ZN3APT11CacheFilter12FalseMatcherclERKN8pkgCache11VerIteratorE, 
                       __ZN3APT11CacheFilter12ParsePatternENS_10StringViewEP12pkgCacheFile, 
                       __ZN3APT11CacheFilter14PackageMatcherD0Ev, __ZN3APT11CacheFilter14PackageMatcherD1Ev, 
                       __ZN3APT11CacheFilter14PackageMatcherD2Ev, __ZN3APT11CacheFilter19PackageIsNewInstallC1EP12pkgCacheFile, 
                       __ZN3APT11CacheFilter19PackageIsNewInstallC2EP12pkgCacheFile, 
                       __ZN3APT11CacheFilter19PackageIsNewInstallD0Ev, __ZN3APT11CacheFilter19PackageIsNewInstallD1Ev, 
                       __ZN3APT11CacheFilter19PackageIsNewInstallD2Ev, __ZN3APT11CacheFilter19PackageIsNewInstallclERKN8pkgCache11PkgIteratorE, 
                       __ZN3APT11CacheFilter23PackageNameMatchesRegExC1ERKNSt3__112basic_stringIcNS2_11char_traitsIcEENS2_9allocatorIcEEEE, 
                       __ZN3APT11CacheFilter23PackageNameMatchesRegExC2ERKNSt3__112basic_stringIcNS2_11char_traitsIcEENS2_9allocatorIcEEEE, 
                       __ZN3APT11CacheFilter23PackageNameMatchesRegExD0Ev, __ZN3APT11CacheFilter23PackageNameMatchesRegExD1Ev, 
                       __ZN3APT11CacheFilter23PackageNameMatchesRegExD2Ev, __ZN3APT11CacheFilter23PackageNameMatchesRegExclERKN8pkgCache11GrpIteratorE, 
                       __ZN3APT11CacheFilter23PackageNameMatchesRegExclERKN8pkgCache11PkgIteratorE, 
                       __ZN3APT11CacheFilter25PackageNameMatchesFnmatchC1ERKNSt3__112basic_stringIcNS2_11char_traitsIcEENS2_9allocatorIcEEEE, 
                       __ZN3APT11CacheFilter25PackageNameMatchesFnmatchC2ERKNSt3__112basic_stringIcNS2_11char_traitsIcEENS2_9allocatorIcEEEE, 
                       __ZN3APT11CacheFilter25PackageNameMatchesFnmatchclERKN8pkgCache11GrpIteratorE, 
                       __ZN3APT11CacheFilter25PackageNameMatchesFnmatchclERKN8pkgCache11PkgIteratorE, 
                       __ZN3APT11CacheFilter39PackageArchitectureMatchesSpecificationC1ERKNSt3__112basic_stringIcNS2_11char_traitsIcEENS2_9allocatorIcEEEEb, 
                       __ZN3APT11CacheFilter39PackageArchitectureMatchesSpecificationC2ERKNSt3__112basic_stringIcNS2_11char_traitsIcEENS2_9allocatorIcEEEEb, 
                       __ZN3APT11CacheFilter39PackageArchitectureMatchesSpecificationD0Ev, 
                       __ZN3APT11CacheFilter39PackageArchitectureMatchesSpecificationD1Ev, 
                       __ZN3APT11CacheFilter39PackageArchitectureMatchesSpecificationD2Ev, 
                       __ZN3APT11CacheFilter39PackageArchitectureMatchesSpecificationclERKN8pkgCache11PkgIteratorE, 
                       __ZN3APT11CacheFilter39PackageArchitectureMatchesSpecificationclERKPKc, 
                       __ZN3APT11CacheFilter7MatcherD0Ev, __ZN3APT11CacheFilter7MatcherD1Ev, 
                       __ZN3APT11CacheFilter7MatcherD2Ev, __ZN3APT11CacheFilter9ORMatcher2OREPNS0_7MatcherE, 
                       __ZN3APT11CacheFilter9ORMatcherC1EPNS0_7MatcherE, __ZN3APT11CacheFilter9ORMatcherC1EPNS0_7MatcherES3_, 
                       __ZN3APT11CacheFilter9ORMatcherC1EPNS0_7MatcherES3_S3_, __ZN3APT11CacheFilter9ORMatcherC1EPNS0_7MatcherES3_S3_S3_, 
                       __ZN3APT11CacheFilter9ORMatcherC1EPNS0_7MatcherES3_S3_S3_S3_, 
                       __ZN3APT11CacheFilter9ORMatcherC1Ev, __ZN3APT11CacheFilter9ORMatcherC2EPNS0_7MatcherE, 
                       __ZN3APT11CacheFilter9ORMatcherC2EPNS0_7MatcherES3_, __ZN3APT11CacheFilter9ORMatcherC2EPNS0_7MatcherES3_S3_, 
                       __ZN3APT11CacheFilter9ORMatcherC2EPNS0_7MatcherES3_S3_S3_, 
                       __ZN3APT11CacheFilter9ORMatcherC2EPNS0_7MatcherES3_S3_S3_S3_, 
                       __ZN3APT11CacheFilter9ORMatcherC2Ev, __ZN3APT11CacheFilter9ORMatcherD0Ev, 
                       __ZN3APT11CacheFilter9ORMatcherD1Ev, __ZN3APT11CacheFilter9ORMatcherD2Ev, 
                       __ZN3APT11CacheFilter9ORMatcherclERKN8pkgCache11GrpIteratorE, 
                       __ZN3APT11CacheFilter9ORMatcherclERKN8pkgCache11PkgIteratorE, 
                       __ZN3APT11CacheFilter9ORMatcherclERKN8pkgCache11VerIteratorE, 
                       __ZN3APT12StateChanges4HoldERKN8pkgCache11VerIteratorE, __ZN3APT12StateChanges4HoldEv, 
                       __ZN3APT12StateChanges4SaveEb, __ZN3APT12StateChanges5ErrorEv, 
                       __ZN3APT12StateChanges5PurgeERKN8pkgCache11VerIteratorE, __ZN3APT12StateChanges5PurgeEv, 
                       __ZN3APT12StateChanges5clearEv, __ZN3APT12StateChanges6RemoveERKN8pkgCache11VerIteratorE, 
                       __ZN3APT12StateChanges6RemoveEv, __ZN3APT12StateChanges6UnholdERKN8pkgCache11VerIteratorE, 
                       __ZN3APT12StateChanges6UnholdEv, __ZN3APT12StateChanges7InstallERKN8pkgCache11VerIteratorE, 
                       __ZN3APT12StateChanges7InstallEv, __ZN3APT12StateChangesC1EOS0_, 
                       __ZN3APT12StateChangesC1Ev, __ZN3APT12StateChangesC2EOS0_, 
                       __ZN3APT12StateChangesC2Ev, __ZN3APT12StateChangesD1Ev, __ZN3APT12StateChangesD2Ev, 
                       __ZN3APT12StateChangesaSEOS0_, __ZN3APT13Configuration10CompressorC1EPKcS3_S3_S3_S3_t, 
                       __ZN3APT13Configuration10CompressorC2EPKcS3_S3_S3_S3_t, __ZN3APT13Configuration12getLanguagesERKbS2_PPKc, 
                       __ZN3APT13Configuration13checkLanguageENSt3__112basic_stringIcNS1_11char_traitsIcEENS1_9allocatorIcEEEEb, 
                       __ZN3APT13Configuration14getCompressorsEb, __ZN3APT13Configuration16getArchitecturesERKb, 
                       __ZN3APT13Configuration16getBuildProfilesEv, __ZN3APT13Configuration17checkArchitectureERKNSt3__112basic_stringIcNS1_11char_traitsIcEENS1_9allocatorIcEEEE, 
                       __ZN3APT13Configuration19getCompressionTypesERKb, __ZN3APT13Configuration22getBuildProfilesStringEv, 
                       __ZN3APT13Configuration23getCompressorExtensionsEv, __ZN3APT14CacheSetHelper11PackageFromENS0_11PkgSelectorEPNS_25PackageContainerInterfaceER12pkgCacheFileRKNSt3__112basic_stringIcNS6_11char_traitsIcEENS6_9allocatorIcEEEE, 
                       __ZN3APT14CacheSetHelper14canNotFindTaskEPNS_25PackageContainerInterfaceER12pkgCacheFileNSt3__112basic_stringIcNS5_11char_traitsIcEENS5_9allocatorIcEEEE, 
                       __ZN3APT14CacheSetHelper15PackageFromTaskEPNS_25PackageContainerInterfaceER12pkgCacheFileNSt3__112basic_stringIcNS5_11char_traitsIcEENS5_9allocatorIcEEEE, 
                       __ZN3APT14CacheSetHelper15canNotFindRegExEPNS_25PackageContainerInterfaceER12pkgCacheFileNSt3__112basic_stringIcNS5_11char_traitsIcEENS5_9allocatorIcEEEE, 
                       __ZN3APT14CacheSetHelper16PackageFromRegExEPNS_25PackageContainerInterfaceER12pkgCacheFileNSt3__112basic_stringIcNS5_11char_traitsIcEENS5_9allocatorIcEEEE, 
                       __ZN3APT14CacheSetHelper16canNotFindAllVerEPNS_25VersionContainerInterfaceER12pkgCacheFileRKN8pkgCache11PkgIteratorE, 
                       __ZN3APT14CacheSetHelper16canNotGetVersionENS0_11VerSelectorER12pkgCacheFileRKN8pkgCache11PkgIteratorE, 
                       __ZN3APT14CacheSetHelper17PackageFromStringEPNS_25PackageContainerInterfaceER12pkgCacheFileRKNSt3__112basic_stringIcNS5_11char_traitsIcEENS5_9allocatorIcEEEE, 
                       __ZN3APT14CacheSetHelper17canNotFindFnmatchEPNS_25PackageContainerInterfaceER12pkgCacheFileNSt3__112basic_stringIcNS5_11char_traitsIcEENS5_9allocatorIcEEEE, 
                       __ZN3APT14CacheSetHelper17canNotFindPackageENS0_11PkgSelectorEPNS_25PackageContainerInterfaceER12pkgCacheFileRKNSt3__112basic_stringIcNS6_11char_traitsIcEENS6_9allocatorIcEEEE, 
                       __ZN3APT14CacheSetHelper17canNotFindPackageEPNS_25PackageContainerInterfaceER12pkgCacheFileRKNSt3__112basic_stringIcNS5_11char_traitsIcEENS5_9allocatorIcEEEE, 
                       __ZN3APT14CacheSetHelper17canNotFindPkgNameER12pkgCacheFileRKNSt3__112basic_stringIcNS3_11char_traitsIcEENS3_9allocatorIcEEEE, 
                       __ZN3APT14CacheSetHelper17canNotFindVersionENS0_11VerSelectorEPNS_25VersionContainerInterfaceER12pkgCacheFileRKN8pkgCache11PkgIteratorE, 
                       __ZN3APT14CacheSetHelper17showTaskSelectionERKN8pkgCache11PkgIteratorERKNSt3__112basic_stringIcNS5_11char_traitsIcEENS5_9allocatorIcEEEE, 
                       __ZN3APT14CacheSetHelper18PackageFromFnmatchEPNS_25PackageContainerInterfaceER12pkgCacheFileNSt3__112basic_stringIcNS5_11char_traitsIcEENS5_9allocatorIcEEEE, 
                       __ZN3APT14CacheSetHelper18PackageFromPatternEPNS_25PackageContainerInterfaceER12pkgCacheFileRKNSt3__112basic_stringIcNS5_11char_traitsIcEENS5_9allocatorIcEEEE, 
                       __ZN3APT14CacheSetHelper18showRegExSelectionERKN8pkgCache11PkgIteratorERKNSt3__112basic_stringIcNS5_11char_traitsIcEENS5_9allocatorIcEEEE, 
                       __ZN3APT14CacheSetHelper19canNotFindNewestVerER12pkgCacheFileRKN8pkgCache11PkgIteratorE, 
                       __ZN3APT14CacheSetHelper19showSelectedVersionERKN8pkgCache11PkgIteratorENS1_11VerIteratorERKNSt3__112basic_stringIcNS6_11char_traitsIcEENS6_9allocatorIcEEEEb, 
                       __ZN3APT14CacheSetHelper20canNotGetCandInstVerER12pkgCacheFileRKN8pkgCache11PkgIteratorE, 
                       __ZN3APT14CacheSetHelper20canNotGetInstCandVerER12pkgCacheFileRKN8pkgCache11PkgIteratorE, 
                       __ZN3APT14CacheSetHelper20showFnmatchSelectionERKN8pkgCache11PkgIteratorERKNSt3__112basic_stringIcNS5_11char_traitsIcEENS5_9allocatorIcEEEE, 
                       __ZN3APT14CacheSetHelper20showPackageSelectionERKN8pkgCache11PkgIteratorENS0_11PkgSelectorERKNSt3__112basic_stringIcNS6_11char_traitsIcEENS6_9allocatorIcEEEE, 
                       __ZN3APT14CacheSetHelper20showPatternSelectionERKN8pkgCache11PkgIteratorERKNSt3__112basic_stringIcNS5_11char_traitsIcEENS5_9allocatorIcEEEE, 
                       __ZN3APT14CacheSetHelper20showVersionSelectionERKN8pkgCache11PkgIteratorERKNS1_11VerIteratorENS0_11VerSelectorERKNSt3__112basic_stringIcNS9_11char_traitsIcEENS9_9allocatorIcEEEE, 
                       __ZN3APT14CacheSetHelper21canNotFindCandInstVerEPNS_25VersionContainerInterfaceER12pkgCacheFileRKN8pkgCache11PkgIteratorE, 
                       __ZN3APT14CacheSetHelper21canNotFindInstCandVerEPNS_25VersionContainerInterfaceER12pkgCacheFileRKN8pkgCache11PkgIteratorE, 
                       __ZN3APT14CacheSetHelper22PackageFromCommandLineEPNS_25PackageContainerInterfaceER12pkgCacheFilePPKc, 
                       __ZN3APT14CacheSetHelper22PackageFromPackageNameEPNS_25PackageContainerInterfaceER12pkgCacheFileNSt3__112basic_stringIcNS5_11char_traitsIcEENS5_9allocatorIcEEEE, 
                       __ZN3APT14CacheSetHelper22canNotFindCandidateVerER12pkgCacheFileRKN8pkgCache11PkgIteratorE, 
                       __ZN3APT14CacheSetHelper22canNotFindInstalledVerER12pkgCacheFileRKN8pkgCache11PkgIteratorE, 
                       __ZN3APT14CacheSetHelper30PackageFromModifierCommandLineERtPNS_25PackageContainerInterfaceER12pkgCacheFilePKcRKNSt3__14listINS0_11PkgModifierENS8_9allocatorISA_EEEE, 
                       __ZN3APT14CacheSetHelperC1EbN11GlobalError7MsgTypeE, __ZN3APT14CacheSetHelperC2EbN11GlobalError7MsgTypeE, 
                       __ZN3APT14CacheSetHelperD0Ev, __ZN3APT14CacheSetHelperD1Ev, 
                       __ZN3APT14CacheSetHelperD2Ev, __ZN3APT15PackageUniverseC1EP12pkgCacheFile, 
                       __ZN3APT15PackageUniverseC1EP8pkgCache, __ZN3APT15PackageUniverseC2EP12pkgCacheFile, 
                       __ZN3APT15PackageUniverseC2EP8pkgCache, __ZN3APT15PackageUniverseD0Ev, 
                       __ZN3APT15PackageUniverseD1Ev, __ZN3APT15PackageUniverseD2Ev, 
                       __ZN3APT22KernelAutoRemoveHelper25GetProtectedKernelsFilterEP8pkgCacheb, 
                       __ZN3APT25PackageContainerInterfaceC2ENS_14CacheSetHelper11PkgSelectorE, 
                       __ZN3APT25PackageContainerInterfaceC2ERKS0_, __ZN3APT25PackageContainerInterfaceC2Ev, 
                       __ZN3APT25PackageContainerInterfaceD0Ev, __ZN3APT25PackageContainerInterfaceD1Ev, 
                       __ZN3APT25PackageContainerInterfaceD2Ev, __ZN3APT25PackageContainerInterfaceaSERKS0_, 
                       __ZN3APT25VersionContainerInterface10FromStringEPS0_R12pkgCacheFileNSt3__112basic_stringIcNS4_11char_traitsIcEENS4_9allocatorIcEEEENS_14CacheSetHelper11VerSelectorERSB_b, 
                       __ZN3APT25VersionContainerInterface11FromPackageEPS0_R12pkgCacheFileRKN8pkgCache11PkgIteratorENS_14CacheSetHelper11VerSelectorERS8_, 
                       __ZN3APT25VersionContainerInterface14FromDependencyEPS0_R12pkgCacheFileRKN8pkgCache11DepIteratorENS_14CacheSetHelper11VerSelectorERS8_, 
                       __ZN3APT25VersionContainerInterface15FromCommandLineEPS0_R12pkgCacheFilePPKcNS_14CacheSetHelper11VerSelectorERS7_, 
                       __ZN3APT25VersionContainerInterface15getCandidateVerER12pkgCacheFileRKN8pkgCache11PkgIteratorERNS_14CacheSetHelperE, 
                       __ZN3APT25VersionContainerInterface15getInstalledVerER12pkgCacheFileRKN8pkgCache11PkgIteratorERNS_14CacheSetHelperE, 
                       __ZN3APT25VersionContainerInterface23FromModifierCommandLineERtPS0_R12pkgCacheFilePKcRKNSt3__14listINS0_8ModifierENS7_9allocatorIS9_EEEERNS_14CacheSetHelperE, 
                       __ZN3APT25VersionContainerInterfaceC2ERKS0_, __ZN3APT25VersionContainerInterfaceC2Ev, 
                       __ZN3APT25VersionContainerInterfaceD0Ev, __ZN3APT25VersionContainerInterfaceD1Ev, 
                       __ZN3APT25VersionContainerInterfaceD2Ev, __ZN3APT25VersionContainerInterfaceaSERKS0_, 
                       __ZN3APT6String10StartswithERKNSt3__112basic_stringIcNS1_11char_traitsIcEENS1_9allocatorIcEEEES9_, 
                       __ZN3APT6String13DisplayLengthENS_10StringViewE, __ZN3APT6String4JoinENSt3__16vectorINS1_12basic_stringIcNS1_11char_traitsIcEENS1_9allocatorIcEEEENS6_IS8_EEEERKS8_, 
                       __ZN3APT6String5StripERKNSt3__112basic_stringIcNS1_11char_traitsIcEENS1_9allocatorIcEEEE, 
                       __ZN3APT6String8EndswithERKNSt3__112basic_stringIcNS1_11char_traitsIcEENS1_9allocatorIcEEEES9_, 
                       __ZN3APT7Upgrade7UpgradeER11pkgDepCacheiP10OpProgress, __ZN3APT8Internal17PatternTreeParser4Node5errorENSt3__112basic_stringIcNS3_11char_traitsIcEENS3_9allocatorIcEEEE, 
                       __ZN3APT8Internal17PatternTreeParser5parseEv, __ZN3APT8Internal17PatternTreeParser8parseTopEv, 
                       __ZN3APT8Progress14PackageManager13StatusChangedENSt3__112basic_stringIcNS2_11char_traitsIcEENS2_9allocatorIcEEEEjjS8_, 
                       __ZN3APT8Progress14PackageManagerC1Ev, __ZN3APT8Progress14PackageManagerC2Ev, 
                       __ZN3APT8Progress14PackageManagerD0Ev, __ZN3APT8Progress14PackageManagerD1Ev, 
                       __ZN3APT8Progress14PackageManagerD2Ev, __ZN3APT8Progress18PackageManagerText13StatusChangedENSt3__112basic_stringIcNS2_11char_traitsIcEENS2_9allocatorIcEEEEjjS8_, 
                       __ZN3APT8Progress18PackageManagerTextC1Ev, __ZN3APT8Progress18PackageManagerTextC2Ev, 
                       __ZN3APT8Progress18PackageManagerTextD0Ev, __ZN3APT8Progress18PackageManagerTextD1Ev, 
                       __ZN3APT8Progress18PackageManagerTextD2Ev, __ZN3APT8Progress19PackageManagerFancy13StatusChangedENSt3__112basic_stringIcNS2_11char_traitsIcEENS2_9allocatorIcEEEEjjS8_, 
                       __ZN3APT8Progress19PackageManagerFancy14HandleSIGWINCHEi, 
                       __ZN3APT8Progress19PackageManagerFancy15GetTerminalSizeEv, 
                       __ZN3APT8Progress19PackageManagerFancy18GetTextProgressStrEfi, 
                       __ZN3APT8Progress19PackageManagerFancy23SetupTerminalScrollAreaEi, 
                       __ZN3APT8Progress19PackageManagerFancy4StopEv, __ZN3APT8Progress19PackageManagerFancy5StartEi, 
                       __ZN3APT8Progress19PackageManagerFancy9instancesE, __ZN3APT8Progress19PackageManagerFancyC1Ev, 
                       __ZN3APT8Progress19PackageManagerFancyC2Ev, __ZN3APT8Progress19PackageManagerFancyD0Ev, 
                       __ZN3APT8Progress19PackageManagerFancyD1Ev, __ZN3APT8Progress19PackageManagerFancyD2Ev, 
                       __ZN3APT8Progress24PackageManagerProgressFd13StatusChangedENSt3__112basic_stringIcNS2_11char_traitsIcEENS2_9allocatorIcEEEEjjS8_, 
                       __ZN3APT8Progress24PackageManagerProgressFd14ConffilePromptENSt3__112basic_stringIcNS2_11char_traitsIcEENS2_9allocatorIcEEEEjjS8_, 
                       __ZN3APT8Progress24PackageManagerProgressFd15WriteToStatusFdENSt3__112basic_stringIcNS2_11char_traitsIcEENS2_9allocatorIcEEEE, 
                       __ZN3APT8Progress24PackageManagerProgressFd4StopEv, __ZN3APT8Progress24PackageManagerProgressFd5ErrorENSt3__112basic_stringIcNS2_11char_traitsIcEENS2_9allocatorIcEEEEjjS8_, 
                       __ZN3APT8Progress24PackageManagerProgressFd9StartDpkgEv, __ZN3APT8Progress24PackageManagerProgressFdC1Ei, 
                       __ZN3APT8Progress24PackageManagerProgressFdC2Ei, __ZN3APT8Progress24PackageManagerProgressFdD0Ev, 
                       __ZN3APT8Progress24PackageManagerProgressFdD1Ev, __ZN3APT8Progress24PackageManagerProgressFdD2Ev, 
                       __ZN3APT8Progress29PackageManagerProgressFactoryEv, __ZN3APT8Progress30PackageManagerProgressDeb822Fd13StatusChangedENSt3__112basic_stringIcNS2_11char_traitsIcEENS2_9allocatorIcEEEEjjS8_, 
                       __ZN3APT8Progress30PackageManagerProgressDeb822Fd14ConffilePromptENSt3__112basic_stringIcNS2_11char_traitsIcEENS2_9allocatorIcEEEEjjS8_, 
                       __ZN3APT8Progress30PackageManagerProgressDeb822Fd15WriteToStatusFdENSt3__112basic_stringIcNS2_11char_traitsIcEENS2_9allocatorIcEEEE, 
                       __ZN3APT8Progress30PackageManagerProgressDeb822Fd4StopEv, 
                       __ZN3APT8Progress30PackageManagerProgressDeb822Fd5ErrorENSt3__112basic_stringIcNS2_11char_traitsIcEENS2_9allocatorIcEEEEjjS8_, 
                       __ZN3APT8Progress30PackageManagerProgressDeb822Fd9StartDpkgEv, 
                       __ZN3APT8Progress30PackageManagerProgressDeb822FdC1Ei, __ZN3APT8Progress30PackageManagerProgressDeb822FdC2Ei, 
                       __ZN3APT8Progress30PackageManagerProgressDeb822FdD0Ev, __ZN3APT8Progress30PackageManagerProgressDeb822FdD1Ev, 
                       __ZN3APT8Progress30PackageManagerProgressDeb822FdD2Ev, __ZN3URI11ArchiveOnlyERKNSt3__112basic_stringIcNS0_11char_traitsIcEENS0_9allocatorIcEEEE, 
                       __ZN3URI14NoUserPasswordERKNSt3__112basic_stringIcNS0_11char_traitsIcEENS0_9allocatorIcEEEE, 
                       __ZN3URI8CopyFromERKNSt3__112basic_stringIcNS0_11char_traitsIcEENS0_9allocatorIcEEEE, 
                       __ZN3URI8SiteOnlyERKNSt3__112basic_stringIcNS0_11char_traitsIcEENS0_9allocatorIcEEEE, 
                       __ZN3URIcvNSt3__112basic_stringIcNS0_11char_traitsIcEENS0_9allocatorIcEEEEEv, 
                       __ZN4EDSP10WriteErrorEPKcRKNSt3__112basic_stringIcNS2_11char_traitsIcEENS2_9allocatorIcEEEER6FileFd, 
                       __ZN4EDSP11ReadRequestEiRNSt3__14listINS0_12basic_stringIcNS0_11char_traitsIcEENS0_9allocatorIcEEEENS5_IS7_EEEESA_Rj, 
                       __ZN4EDSP12ApplyRequestERKNSt3__14listINS0_12basic_stringIcNS0_11char_traitsIcEENS0_9allocatorIcEEEENS5_IS7_EEEESB_R11pkgDepCache, 
                       __ZN4EDSP12ReadResponseEiR11pkgDepCacheP10OpProgress, __ZN4EDSP12WriteRequestER11pkgDepCacheR6FileFdjP10OpProgress, 
                       __ZN4EDSP13ExecuteSolverEPKcPiS2_b, __ZN4EDSP13WriteProgressEtPKcR6FileFd, 
                       __ZN4EDSP13WriteScenarioER11pkgDepCacheR6FileFdP10OpProgress, 
                       __ZN4EDSP15ResolveExternalEPKcR11pkgDepCachejP10OpProgress, 
                       __ZN4EDSP19WriteSolutionStanzaER6FileFdPKcRKN8pkgCache11VerIteratorE, 
                       __ZN4EDSP20WriteLimitedScenarioER11pkgDepCacheR6FileFdRKNSt3__16vectorIbNS4_9allocatorIbEEEEP10OpProgress, 
                       __ZN4EIPP11ReadRequestEiRNSt3__14listINS0_4pairINS0_12basic_stringIcNS0_11char_traitsIcEENS0_9allocatorIcEEEENS_10PKG_ACTIONEEENS6_ISA_EEEERj, 
                       __ZN4EIPP12ApplyRequestERNSt3__14listINS0_4pairINS0_12basic_stringIcNS0_11char_traitsIcEENS0_9allocatorIcEEEENS_10PKG_ACTIONEEENS6_ISA_EEEER11pkgDepCache, 
                       __ZN6FileFd14OpenDescriptorEijNS_12CompressModeEb, __ZN6FileFd14OpenDescriptorEijRKN3APT13Configuration10CompressorEb, 
                       __ZN6FileFd16ModificationTimeEv, __ZN6FileFd4OpenENSt3__112basic_stringIcNS0_11char_traitsIcEENS0_9allocatorIcEEEEjNS_12CompressModeEm, 
                       __ZN6FileFd4OpenENSt3__112basic_stringIcNS0_11char_traitsIcEENS0_9allocatorIcEEEEjRKN3APT13Configuration10CompressorEm, 
                       __ZN6FileFd4ReadEPvyPy, __ZN6FileFd4ReadEiPvyPy, __ZN6FileFd4SeekEy, 
                       __ZN6FileFd4SizeEv, __ZN6FileFd4SkipEy, __ZN6FileFd4SyncEv, 
                       __ZN6FileFd4TellEv, __ZN6FileFd5CloseEv, __ZN6FileFd5FlushEv, 
                       __ZN6FileFd5WriteEPKvy, __ZN6FileFd5WriteEiPKvy, __ZN6FileFd8FileSizeEv, 
                       __ZN6FileFd8ReadLineEPcy, __ZN6FileFd8ReadLineERNSt3__112basic_stringIcNS0_11char_traitsIcEENS0_9allocatorIcEEEE, 
                       __ZN6FileFd8TruncateEy, __ZN6FileFdC1ENSt3__112basic_stringIcNS0_11char_traitsIcEENS0_9allocatorIcEEEEjNS_12CompressModeEm, 
                       __ZN6FileFdC1ENSt3__112basic_stringIcNS0_11char_traitsIcEENS0_9allocatorIcEEEEjm, 
                       __ZN6FileFdC1Eib, __ZN6FileFdC1EijNS_12CompressModeE, __ZN6FileFdC1Ev, 
                       __ZN6FileFdC2ENSt3__112basic_stringIcNS0_11char_traitsIcEENS0_9allocatorIcEEEEjNS_12CompressModeEm, 
                       __ZN6FileFdC2ENSt3__112basic_stringIcNS0_11char_traitsIcEENS0_9allocatorIcEEEEjm, 
                       __ZN6FileFdC2Eib, __ZN6FileFdC2EijNS_12CompressModeE, __ZN6FileFdC2Ev, 
                       __ZN6FileFdD0Ev, __ZN6FileFdD1Ev, __ZN6FileFdD2Ev, __ZN6Hashes13GetHashStringENS_15SupportedHashesE, 
                       __ZN6Hashes17GetHashStringListEv, __ZN6Hashes3AddEPKhy, __ZN6Hashes5AddFDER6FileFdy, 
                       __ZN6Hashes5AddFDEiy, __ZN6HashesC1ERK14HashStringList, __ZN6HashesC1Ej, 
                       __ZN6HashesC1Ev, __ZN6HashesC2ERK14HashStringList, __ZN6HashesC2Ej, 
                       __ZN6HashesC2Ev, __ZN6HashesD0Ev, __ZN6HashesD1Ev, __ZN6HashesD2Ev, 
                       __ZN8pkgCache11CompTypeDebEh, __ZN8pkgCache11DepIterator6GlobOrERS0_S1_, 
                       __ZN8pkgCache11DepIteratorppEv, __ZN8pkgCache11GrpIteratorppEv, 
                       __ZN8pkgCache11PkgIteratorppEv, __ZN8pkgCache15PkgFileIterator6RelStrEv, 
                       __ZN8pkgCache15RlsFileIterator6RelStrEv, __ZN8pkgCache5ReMapERKb, 
                       __ZN8pkgCache6HeaderC1Ev, __ZN8pkgCache6HeaderC2Ev, __ZN8pkgCache7DepTypeEh, 
                       __ZN8pkgCache7FindGrpEN3APT10StringViewE, __ZN8pkgCache7FindPkgEN3APT10StringViewE, 
                       __ZN8pkgCache7FindPkgEN3APT10StringViewES1_, __ZN8pkgCache8CompTypeEh, 
                       __ZN8pkgCache8PriorityEh, __ZN8pkgCacheC1EP4MMapb, __ZN8pkgCacheC2EP4MMapb, 
                       __ZN8pkgCacheD0Ev, __ZN8pkgCacheD1Ev, __ZN8pkgCacheD2Ev, __ZN8pkgCdrom11DropRepeatsERNSt3__16vectorINS0_12basic_stringIcNS0_11char_traitsIcEENS0_9allocatorIcEEEENS5_IS7_EEEEPKc, 
                       __ZN8pkgCdrom12FindPackagesENSt3__112basic_stringIcNS0_11char_traitsIcEENS0_9allocatorIcEEEERNS0_6vectorIS6_NS4_IS6_EEEESA_SA_SA_RS6_P14pkgCdromStatusj, 
                       __ZN8pkgCdrom13WriteDatabaseER13Configuration, __ZN8pkgCdrom14DropBinaryArchERNSt3__16vectorINS0_12basic_stringIcNS0_11char_traitsIcEENS0_9allocatorIcEEEENS5_IS7_EEEE, 
                       __ZN8pkgCdrom15DropTranslationERNSt3__16vectorINS0_12basic_stringIcNS0_11char_traitsIcEENS0_9allocatorIcEEEENS5_IS7_EEEE, 
                       __ZN8pkgCdrom15WriteSourceListENSt3__112basic_stringIcNS0_11char_traitsIcEENS0_9allocatorIcEEEERNS0_6vectorIS6_NS4_IS6_EEEEb, 
                       __ZN8pkgCdrom16ReduceSourcelistENSt3__112basic_stringIcNS0_11char_traitsIcEENS0_9allocatorIcEEEERNS0_6vectorIS6_NS4_IS6_EEEE, 
                       __ZN8pkgCdrom3AddEP14pkgCdromStatus, __ZN8pkgCdrom5IdentERNSt3__112basic_stringIcNS0_11char_traitsIcEENS0_9allocatorIcEEEEP14pkgCdromStatus, 
                       __ZN8pkgCdrom5ScoreENSt3__112basic_stringIcNS0_11char_traitsIcEENS0_9allocatorIcEEEE, 
                       __ZN8pkgCdromC1Ev, __ZN8pkgCdromC2Ev, __ZN8pkgCdromD0Ev, __ZN8pkgCdromD1Ev, 
                       __ZN8pkgCdromD2Ev, __ZN9ARArchive11LoadHeadersEv, __ZN9ARArchiveC1ER6FileFd, 
                       __ZN9ARArchiveC2ER6FileFd, __ZN9ARArchiveD1Ev, __ZN9ARArchiveD2Ev, 
                       __ZN9IndexCopy12CopyPackagesENSt3__112basic_stringIcNS0_11char_traitsIcEENS0_9allocatorIcEEEES6_RNS0_6vectorIS6_NS4_IS6_EEEEP14pkgCdromStatus, 
                       __ZN9IndexCopy15ReconstructChopERmNSt3__112basic_stringIcNS1_11char_traitsIcEENS1_9allocatorIcEEEES7_, 
                       __ZN9IndexCopy17ReconstructPrefixERNSt3__112basic_stringIcNS0_11char_traitsIcEENS0_9allocatorIcEEEES6_S6_S6_, 
                       __ZN9IndexCopy19ConvertToSourceListENSt3__112basic_stringIcNS0_11char_traitsIcEENS0_9allocatorIcEEEERS6_, 
                       __ZN9IndexCopy8ChopDirsENSt3__112basic_stringIcNS0_11char_traitsIcEENS0_9allocatorIcEEEEj, 
                       __ZN9IndexCopy9GrabFirstENSt3__112basic_stringIcNS0_11char_traitsIcEENS0_9allocatorIcEEEERS6_j, 
                       __ZN9IndexCopyC2Ev, __ZN9IndexCopyD0Ev, __ZN9IndexCopyD1Ev, 
                       __ZN9IndexCopyD2Ev, __ZN9SigVerify13CopyAndVerifyENSt3__112basic_stringIcNS0_11char_traitsIcEENS0_9allocatorIcEEEES6_RNS0_6vectorIS6_NS4_IS6_EEEES9_S9_, 
                       __ZN9SigVerifyC1Ev, __ZN9SigVerifyC2Ev, __ZN9SigVerifyD0Ev, 
                       __ZN9SigVerifyD1Ev, __ZN9SigVerifyD2Ev, __ZN9metaIndex8swapLoadEPS_, 
                       __ZN9metaIndexC2ERKNSt3__112basic_stringIcNS0_11char_traitsIcEENS0_9allocatorIcEEEES8_PKc, 
                       __ZN9metaIndexD0Ev, __ZN9metaIndexD1Ev, __ZN9metaIndexD2Ev, 
                       __ZN9pkgDPkgPM12SendPkgsInfoEP7__sFILERKj, __ZN9pkgDPkgPM12StopPtyMagicEv, 
                       __ZN9pkgDPkgPM13DoTerminalPtyEi, __ZN9pkgDPkgPM13StartPtyMagicEv, 
                       __ZN9pkgDPkgPM14DoDpkgStatusFdEi, __ZN9pkgDPkgPM15WriteHistoryTagERKNSt3__112basic_stringIcNS0_11char_traitsIcEENS0_9allocatorIcEEEES6_, 
                       __ZN9pkgDPkgPM17WriteApportReportEPKcS1_, __ZN9pkgDPkgPM18RunScriptsWithPkgsEPKc, 
                       __ZN9pkgDPkgPM18SetupSlavePtyMagicEv, __ZN9pkgDPkgPM21ProcessDpkgStatusLineEPc, 
                       __ZN9pkgDPkgPM24BuildPackagesProgressMapEv, __ZN9pkgDPkgPM2GoEPN3APT8Progress14PackageManagerE, 
                       __ZN9pkgDPkgPM5ResetEv, __ZN9pkgDPkgPM6RemoveEN8pkgCache11PkgIteratorEb, 
                       __ZN9pkgDPkgPM7DoStdinEi, __ZN9pkgDPkgPM7InstallEN8pkgCache11PkgIteratorENSt3__112basic_stringIcNS2_11char_traitsIcEENS2_9allocatorIcEEEE, 
                       __ZN9pkgDPkgPM7OpenLogEv, __ZN9pkgDPkgPM8CloseLogEv, __ZN9pkgDPkgPM9ConfigureEN8pkgCache11PkgIteratorE, 
                       __ZN9pkgDPkgPMC1EP11pkgDepCache, __ZN9pkgDPkgPMC2EP11pkgDepCache, 
                       __ZN9pkgDPkgPMD0Ev, __ZN9pkgDPkgPMD1Ev, __ZN9pkgDPkgPMD2Ev, 
                       __ZN9pkgPolicy11GetPriorityERKN8pkgCache11VerIteratorEb, __ZN9pkgPolicy11GetPriorityERKN8pkgCache15PkgFileIteratorE, 
                       __ZN9pkgPolicy11SetPriorityERKN8pkgCache11VerIteratorEs, __ZN9pkgPolicy11SetPriorityERKN8pkgCache15PkgFileIteratorEs, 
                       __ZN9pkgPolicy12InitDefaultsEv, __ZN9pkgPolicy15GetCandidateVerERKN8pkgCache11PkgIteratorE, 
                       __ZN9pkgPolicy9CreatePinEN15pkgVersionMatch9MatchTypeENSt3__112basic_stringIcNS2_11char_traitsIcEENS2_9allocatorIcEEEES8_s, 
                       __ZN9pkgPolicyC1EP8pkgCache, __ZN9pkgPolicyC2EP8pkgCache, 
                       __ZN9pkgPolicyD0Ev, __ZN9pkgPolicyD1Ev, __ZN9pkgPolicyD2Ev, 
                       __ZN9pkgSystem10GlobalListE, __ZN9pkgSystem13GlobalListLenE, 
                       __ZN9pkgSystem9GetSystemEPKc, __ZN9pkgSystemC2EPKcP19pkgVersioningSystem, 
                       __ZN9pkgSystemD0Ev, __ZN9pkgSystemD1Ev, __ZN9pkgSystemD2Ev, 
                       __ZNK10HashString10VerifyFileENSt3__112basic_stringIcNS0_11char_traitsIcEENS0_9allocatorIcEEEE, 
                       __ZNK10HashString14GetHashForFileENSt3__112basic_stringIcNS0_11char_traitsIcEENS0_9allocatorIcEEEE, 
                       __ZNK10HashString5emptyEv, __ZNK10HashString5toStrEv, __ZNK10HashString6usableEv, 
                       __ZNK10HashStringeqERKS_, __ZNK10HashStringneERKS_, __ZNK10pkgAcqFile14HashesRequiredEv, 
                       __ZNK10pkgAcqFile16Custom600HeadersEv, __ZNK10pkgAcqFile17GetExpectedHashesEv, 
                       __ZNK10pkgAcquire4Item16Custom600HeadersEv, __ZNK10pkgAcquire4Item16GetFinalFilenameEv, 
                       __ZNK10pkgAcquire4Item7HashSumEv, __ZNK10pkgAcquire4Item8GetOwnerEv, 
                       __ZNK10pkgAcquire4Item9IsTrustedEv, __ZNK10pkgAcquire4Item9ShortDescEv, 
                       __ZNK10pkgAcquire5Queue5QItem14GetMaximumSizeEv, __ZNK10pkgAcquire5Queue5QItem16Custom600HeadersEv, 
                       __ZNK10pkgAcquire5Queue5QItem17GetExpectedHashesEv, __ZNK10pkgAcquire5Queue5QItem20SyncDestinationFilesEv, 
                       __ZNK11CommandLine8FileSizeEv, __ZNK11GlobalError5emptyERKNS_7MsgTypeE, 
                       __ZNK11IndexTarget10OptionBoolENS_10OptionKeysE, __ZNK11IndexTarget6FormatENSt3__112basic_stringIcNS0_11char_traitsIcEENS0_9allocatorIcEEEE, 
                       __ZNK11IndexTarget6OptionENS_10OptionKeysE, __ZNK11pkgDepCache12VersionStateEN8pkgCache11DepIteratorEhhh, 
                       __ZNK11pkgDepCache6Policy14IsImportantDepERKN8pkgCache11DepIteratorE, 
                       __ZNK12pkgAcqMethod11PrintStatusEPKcS1_RPc, __ZNK12pkgIndexFile10SourceInfoERKN13pkgSrcRecords6ParserERKNS0_4FileE, 
                       __ZNK12pkgIndexFile11ArchiveInfoERKN8pkgCache11VerIteratorE, 
                       __ZNK12pkgIndexFile11FindInCacheER8pkgCache, __ZNK13Configuration10FindVectorEPKcRKNSt3__112basic_stringIcNS2_11char_traitsIcEENS2_9allocatorIcEEEEb, 
                       __ZNK13Configuration18MatchAgainstConfig5MatchEPKc, __ZNK13Configuration4FindEPKcS1_, 
                       __ZNK13Configuration4Item7FullTagEPKS0_, __ZNK13Configuration5FindBEPKcRKb, 
                       __ZNK13Configuration5FindIEPKcRKi, __ZNK13Configuration6ExistsEPKc, 
                       __ZNK13Configuration7FindAnyEPKcS1_, __ZNK13Configuration7FindDirEPKcS1_, 
                       __ZNK13Configuration8FindFileEPKcS1_, __ZNK13Configuration9ExistsAnyEPKc, 
                       __ZNK13pkgAcqArchive14HashesRequiredEv, __ZNK13pkgAcqArchive16GetFinalFilenameEv, 
                       __ZNK13pkgAcqArchive17GetExpectedHashesEv, __ZNK13pkgAcqArchive7DescURIEv, 
                       __ZNK13pkgAcqArchive9IsTrustedEv, __ZNK13pkgAcqArchive9ShortDescEv, 
                       __ZNK13pkgSourceList10GetIndexesEP10pkgAcquireb, __ZNK13pkgSourceList16GetVolatileFilesEv, 
                       __ZNK13pkgSourceList4Type8FixupURIERNSt3__112basic_stringIcNS1_11char_traitsIcEENS1_9allocatorIcEEEE, 
                       __ZNK13pkgSourceList4Type9ParseLineERNSt3__16vectorIP9metaIndexNS1_9allocatorIS4_EEEEPKcjRKNS1_12basic_stringIcNS1_11char_traitsIcEENS5_IcEEEE, 
                       __ZNK13pkgSourceList9FindIndexEN8pkgCache15PkgFileIteratorERP12pkgIndexFile, 
                       __ZNK13pkgTagSection3GetERPKcS2_j, __ZNK13pkgTagSection4FindEN3APT10StringViewE, 
                       __ZNK13pkgTagSection4FindEN3APT10StringViewERPKcS4_, __ZNK13pkgTagSection4FindEN3APT10StringViewERj, 
                       __ZNK13pkgTagSection5CountEv, __ZNK13pkgTagSection5FindBEN3APT10StringViewEb, 
                       __ZNK13pkgTagSection5FindIEN3APT10StringViewEl, __ZNK13pkgTagSection5WriteER6FileFdPKPKcRKNSt3__16vectorINS_3TagENS6_9allocatorIS8_EEEE, 
                       __ZNK13pkgTagSection6ExistsEN3APT10StringViewE, __ZNK13pkgTagSection7FindRawEN3APT10StringViewE, 
                       __ZNK13pkgTagSection7FindULLEN3APT10StringViewERKy, __ZNK13pkgTagSection8FindFlagEN3APT10StringViewERhh, 
                       __ZNK13pkgTagSection8FindFlagEN3APT10StringViewERmm, __ZNK14HashStringList10VerifyFileENSt3__112basic_stringIcNS0_11char_traitsIcEENS0_9allocatorIcEEEE, 
                       __ZNK14HashStringList4findEPKc, __ZNK14HashStringList6usableEv, 
                       __ZNK14HashStringList8FileSizeEv, __ZNK14HashStringListeqERKS_, 
                       __ZNK14HashStringListneERKS_, __ZNK15debDscFileIndex12GetComponentEv, 
                       __ZNK15debDscFileIndex13GetIndexFlagsEv, __ZNK15debDscFileIndex15CreateSrcParserEv, 
                       __ZNK15debDscFileIndex15GetArchitectureEv, __ZNK15debDscFileIndex7GetTypeEv, 
                       __ZNK18pkgDebianIndexFile11FindInCacheER8pkgCache, __ZNK21debStringPackageIndex12GetComponentEv, 
                       __ZNK21debStringPackageIndex13GetIndexFlagsEv, __ZNK21debStringPackageIndex15GetArchitectureEv, 
                       __ZNK21debStringPackageIndex7GetTypeEv, __ZNK22pkgDebianIndexRealFile10ArchiveURIERKNSt3__112basic_stringIcNS0_11char_traitsIcEENS0_9allocatorIcEEEE, 
                       __ZNK22pkgDebianIndexRealFile13IndexFileNameEv, __ZNK22pkgDebianIndexRealFile22GetProgressDescriptionEv, 
                       __ZNK22pkgDebianIndexRealFile4SizeEv, __ZNK22pkgDebianIndexRealFile6ExistsEv, 
                       __ZNK22pkgDebianIndexRealFile8DescribeEb, __ZNK24pkgDebianIndexTargetFile10ArchiveURIERKNSt3__112basic_stringIcNS0_11char_traitsIcEENS0_9allocatorIcEEEE, 
                       __ZNK24pkgDebianIndexTargetFile12GetComponentEv, __ZNK24pkgDebianIndexTargetFile13IndexFileNameEv, 
                       __ZNK24pkgDebianIndexTargetFile15GetArchitectureEv, __ZNK24pkgDebianIndexTargetFile22GetProgressDescriptionEv, 
                       __ZNK24pkgDebianIndexTargetFile4SizeEv, __ZNK24pkgDebianIndexTargetFile6ExistsEv, 
                       __ZNK24pkgDebianIndexTargetFile8DescribeEb, __ZNK3APT12StateChanges5emptyEv, 
                       __ZNK6SrvReceqERKS_, __ZNK8pkgCache11DepIterator10AllTargetsEv, 
                       __ZNK8pkgCache11DepIterator10IsCriticalEv, __ZNK8pkgCache11DepIterator10IsImplicitEv, 
                       __ZNK8pkgCache11DepIterator10IsNegativeEv, __ZNK8pkgCache11DepIterator11IsIgnorableERKNS_11PkgIteratorE, 
                       __ZNK8pkgCache11DepIterator11IsIgnorableERKNS_11PrvIteratorE, 
                       __ZNK8pkgCache11DepIterator11IsSatisfiedERKNS_11PrvIteratorE, 
                       __ZNK8pkgCache11DepIterator11IsSatisfiedERKNS_11VerIteratorE, 
                       __ZNK8pkgCache11DepIterator14SmartTargetPkgERNS_11PkgIteratorE, 
                       __ZNK8pkgCache11GrpIterator16FindPreferredPkgERKb, __ZNK8pkgCache11GrpIterator7FindPkgEN3APT10StringViewE, 
                       __ZNK8pkgCache11GrpIterator7NextPkgERKNS_11PkgIteratorE, __ZNK8pkgCache11PkgIterator10CurVersionEv, 
                       __ZNK8pkgCache11PkgIterator5StateEv, __ZNK8pkgCache11PkgIterator8FullNameERKb, 
                       __ZNK8pkgCache11VerIterator10CompareVerERKS0_, __ZNK8pkgCache11VerIterator10NewestFileEv, 
                       __ZNK8pkgCache11VerIterator12DownloadableEv, __ZNK8pkgCache11VerIterator13MultiArchTypeEv, 
                       __ZNK8pkgCache11VerIterator21TranslatedDescriptionEv, __ZNK8pkgCache11VerIterator32TranslatedDescriptionForLanguageEN3APT10StringViewE, 
                       __ZNK8pkgCache11VerIterator6RelStrEv, __ZNK8pkgCache11VerIterator9AutomaticEv, 
                       __ZNK8pkgCache5sHashEN3APT10StringViewE, __ZNK8pkgCache6Header10CheckSizesERS0_, 
                       __ZNK9ARArchive10FindMemberEPKc, __ZNK9metaIndex10GetTrustedEv, 
                       __ZNK9metaIndex10GetVersionEv, __ZNK9metaIndex11FindInCacheER8pkgCacheb, 
                       __ZNK9metaIndex11GetCodenameEv, __ZNK9metaIndex11GetSignedByEv, 
                       __ZNK9metaIndex13GetDefaultPinEv, __ZNK9metaIndex13GetValidUntilEv, 
                       __ZNK9metaIndex15GetExpectedDistEv, __ZNK9metaIndex15GetReleaseNotesEv, 
                       __ZNK9metaIndex21GetLoadedSuccessfullyEv, __ZNK9metaIndex22HasSupportForComponentERKNSt3__112basic_stringIcNS0_11char_traitsIcEENS0_9allocatorIcEEEE, 
                       __ZNK9metaIndex23IsArchitectureSupportedERKNSt3__112basic_stringIcNS0_11char_traitsIcEENS0_9allocatorIcEEEE, 
                       __ZNK9metaIndex24GetSupportsAcquireByHashEv, __ZNK9metaIndex29IsArchitectureAllSupportedForERK11IndexTarget, 
                       __ZNK9metaIndex5MergeER17pkgCacheGeneratorP10OpProgress, __ZNK9metaIndex6ExistsERKNSt3__112basic_stringIcNS0_11char_traitsIcEENS0_9allocatorIcEEEE, 
                       __ZNK9metaIndex6GetURIEv, __ZNK9metaIndex6LookupERKNSt3__112basic_stringIcNS0_11char_traitsIcEENS0_9allocatorIcEEEE, 
                       __ZNK9metaIndex7GetDateEv, __ZNK9metaIndex7GetDistEv, __ZNK9metaIndex7GetTypeEv, 
                       __ZNK9metaIndex8DescribeEv, __ZNK9metaIndex8GetLabelEv, __ZNK9metaIndex8GetSuiteEv, 
                       __ZNK9metaIndex8MetaKeysEv, __ZNK9metaIndex9CheckDistERKNSt3__112basic_stringIcNS0_11char_traitsIcEENS0_9allocatorIcEEEE, 
                       __ZNK9metaIndex9GetOriginEv, __ZTI10ExtractTar, __ZTI10SourceCopy, 
                       __ZTI10pkgAcqFile, __ZTI10pkgAcquire, __ZTI10pkgRecords, __ZTI10pkgTagFile, 
                       __ZTI11PackageCopy, __ZTI11pkgDepCache, __ZTI11pkgSimulate, 
                       __ZTI12pkgAcqMethod, __ZTI12pkgCacheFile, __ZTI12pkgDirStream, 
                       __ZTI12pkgIndexFile, __ZTI12pkgOrderList, __ZTI13pkgAcqArchive, 
                       __ZTI13pkgSourceList, __ZTI13pkgSrcRecords, __ZTI13pkgTagSection, 
                       __ZTI14OpTextProgress, __ZTI14pkgCdromStatus, __ZTI15debDscFileIndex, 
                       __ZTI15pkgAcqChangelog, __ZTI16TranslationsCopy, __ZTI16pkgAcquireStatus, 
                       __ZTI17pkgArchiveCleaner, __ZTI17pkgPackageManager, __ZTI18pkgDebianIndexFile, 
                       __ZTI18pkgProblemResolver, __ZTI19debVersioningSystem, __ZTI19pkgUdevCdromDevices, 
                       __ZTI19pkgVersioningSystem, __ZTI21debStringPackageIndex, 
                       __ZTI22pkgDebianIndexRealFile, __ZTI24pkgDebianIndexTargetFile, 
                       __ZTI6FileFd, __ZTI6Hashes, __ZTI8pkgCache, __ZTI8pkgCdrom, 
                       __ZTI9IndexCopy, __ZTI9SigVerify, __ZTI9metaIndex, __ZTI9pkgDPkgPM, 
                       __ZTI9pkgPolicy, __ZTI9pkgSystem, __ZTIN10debDebFile14ControlExtractE, 
                       __ZTIN10debDebFile17MemControlExtractE, __ZTIN10pkgAcquire11UriIteratorE, 
                       __ZTIN10pkgAcquire12MethodConfigE, __ZTIN10pkgAcquire4ItemE, 
                       __ZTIN10pkgAcquire5QueueE, __ZTIN10pkgAcquire6WorkerE, __ZTIN10pkgRecords6ParserE, 
                       __ZTIN11pkgDepCache11ActionGroupE, __ZTIN11pkgDepCache6PolicyE, 
                       __ZTIN12pkgAcqMethod11FetchResultE, __ZTIN12pkgAcqMethod9FetchItemE, 
                       __ZTIN13Configuration18MatchAgainstConfigE, __ZTIN13pkgSourceList4TypeE, 
                       __ZTIN13pkgSrcRecords6ParserE, __ZTIN3APT11CacheFilter10ANDMatcherE, 
                       __ZTIN3APT11CacheFilter10NOTMatcherE, __ZTIN3APT11CacheFilter11TrueMatcherE, 
                       __ZTIN3APT11CacheFilter12FalseMatcherE, __ZTIN3APT11CacheFilter14PackageMatcherE, 
                       __ZTIN3APT11CacheFilter19PackageIsNewInstallE, __ZTIN3APT11CacheFilter23PackageNameMatchesRegExE, 
                       __ZTIN3APT11CacheFilter25PackageNameMatchesFnmatchE, __ZTIN3APT11CacheFilter39PackageArchitectureMatchesSpecificationE, 
                       __ZTIN3APT11CacheFilter7MatcherE, __ZTIN3APT11CacheFilter9ORMatcherE, 
                       __ZTIN3APT14CacheSetHelperE, __ZTIN3APT15PackageUniverseE, 
                       __ZTIN3APT25PackageContainerInterfaceE, __ZTIN3APT25VersionContainerInterfaceE, 
                       __ZTIN3APT8Internal17PatternTreeParser11PatternNodeE, __ZTIN3APT8Internal17PatternTreeParser8WordNodeE, 
                       __ZTIN3APT8Progress14PackageManagerE, __ZTIN3APT8Progress18PackageManagerTextE, 
                       __ZTIN3APT8Progress19PackageManagerFancyE, __ZTIN3APT8Progress24PackageManagerProgressFdE, 
                       __ZTIN3APT8Progress30PackageManagerProgressDeb822FdE, __ZTS10ExtractTar, 
                       __ZTS10SourceCopy, __ZTS10pkgAcqFile, __ZTS10pkgAcquire, __ZTS10pkgRecords, 
                       __ZTS10pkgTagFile, __ZTS11PackageCopy, __ZTS11pkgDepCache, 
                       __ZTS11pkgSimulate, __ZTS12pkgAcqMethod, __ZTS12pkgCacheFile, 
                       __ZTS12pkgDirStream, __ZTS12pkgIndexFile, __ZTS12pkgOrderList, 
                       __ZTS13pkgAcqArchive, __ZTS13pkgSourceList, __ZTS13pkgSrcRecords, 
                       __ZTS13pkgTagSection, __ZTS14OpTextProgress, __ZTS14pkgCdromStatus, 
                       __ZTS15debDscFileIndex, __ZTS15pkgAcqChangelog, __ZTS16TranslationsCopy, 
                       __ZTS16pkgAcquireStatus, __ZTS17pkgArchiveCleaner, __ZTS17pkgPackageManager, 
                       __ZTS18pkgDebianIndexFile, __ZTS18pkgProblemResolver, __ZTS19debVersioningSystem, 
                       __ZTS19pkgUdevCdromDevices, __ZTS19pkgVersioningSystem, __ZTS21debStringPackageIndex, 
                       __ZTS22pkgDebianIndexRealFile, __ZTS24pkgDebianIndexTargetFile, 
                       __ZTS6FileFd, __ZTS6Hashes, __ZTS8pkgCache, __ZTS8pkgCdrom, 
                       __ZTS9IndexCopy, __ZTS9SigVerify, __ZTS9metaIndex, __ZTS9pkgDPkgPM, 
                       __ZTS9pkgPolicy, __ZTS9pkgSystem, __ZTSN10debDebFile14ControlExtractE, 
                       __ZTSN10debDebFile17MemControlExtractE, __ZTSN10pkgAcquire11UriIteratorE, 
                       __ZTSN10pkgAcquire12MethodConfigE, __ZTSN10pkgAcquire4ItemE, 
                       __ZTSN10pkgAcquire5QueueE, __ZTSN10pkgAcquire6WorkerE, __ZTSN10pkgRecords6ParserE, 
                       __ZTSN11pkgDepCache11ActionGroupE, __ZTSN11pkgDepCache6PolicyE, 
                       __ZTSN12pkgAcqMethod11FetchResultE, __ZTSN12pkgAcqMethod9FetchItemE, 
                       __ZTSN13Configuration18MatchAgainstConfigE, __ZTSN13pkgSourceList4TypeE, 
                       __ZTSN13pkgSrcRecords6ParserE, __ZTSN3APT11CacheFilter10ANDMatcherE, 
                       __ZTSN3APT11CacheFilter10NOTMatcherE, __ZTSN3APT11CacheFilter11TrueMatcherE, 
                       __ZTSN3APT11CacheFilter12FalseMatcherE, __ZTSN3APT11CacheFilter14PackageMatcherE, 
                       __ZTSN3APT11CacheFilter19PackageIsNewInstallE, __ZTSN3APT11CacheFilter23PackageNameMatchesRegExE, 
                       __ZTSN3APT11CacheFilter25PackageNameMatchesFnmatchE, __ZTSN3APT11CacheFilter39PackageArchitectureMatchesSpecificationE, 
                       __ZTSN3APT11CacheFilter7MatcherE, __ZTSN3APT11CacheFilter9ORMatcherE, 
                       __ZTSN3APT14CacheSetHelperE, __ZTSN3APT15PackageUniverseE, 
                       __ZTSN3APT25PackageContainerInterfaceE, __ZTSN3APT25VersionContainerInterfaceE, 
                       __ZTSN3APT8Internal17PatternTreeParser11PatternNodeE, __ZTSN3APT8Internal17PatternTreeParser8WordNodeE, 
                       __ZTSN3APT8Progress14PackageManagerE, __ZTSN3APT8Progress18PackageManagerTextE, 
                       __ZTSN3APT8Progress19PackageManagerFancyE, __ZTSN3APT8Progress24PackageManagerProgressFdE, 
                       __ZTSN3APT8Progress30PackageManagerProgressDeb822FdE, __ZTV10ExtractTar, 
                       __ZTV10SourceCopy, __ZTV10pkgAcqFile, __ZTV10pkgAcquire, __ZTV10pkgRecords, 
                       __ZTV10pkgTagFile, __ZTV11PackageCopy, __ZTV11pkgDepCache, 
                       __ZTV11pkgSimulate, __ZTV12pkgAcqMethod, __ZTV12pkgCacheFile, 
                       __ZTV12pkgDirStream, __ZTV12pkgIndexFile, __ZTV12pkgOrderList, 
                       __ZTV13pkgAcqArchive, __ZTV13pkgSourceList, __ZTV13pkgSrcRecords, 
                       __ZTV13pkgTagSection, __ZTV14OpTextProgress, __ZTV14pkgCdromStatus, 
                       __ZTV15debDscFileIndex, __ZTV15pkgAcqChangelog, __ZTV16TranslationsCopy, 
                       __ZTV16pkgAcquireStatus, __ZTV17pkgArchiveCleaner, __ZTV17pkgPackageManager, 
                       __ZTV18pkgDebianIndexFile, __ZTV18pkgProblemResolver, __ZTV19debVersioningSystem, 
                       __ZTV19pkgUdevCdromDevices, __ZTV19pkgVersioningSystem, __ZTV21debStringPackageIndex, 
                       __ZTV22pkgDebianIndexRealFile, __ZTV24pkgDebianIndexTargetFile, 
                       __ZTV6FileFd, __ZTV6Hashes, __ZTV8pkgCache, __ZTV8pkgCdrom, 
                       __ZTV9IndexCopy, __ZTV9SigVerify, __ZTV9metaIndex, __ZTV9pkgDPkgPM, 
                       __ZTV9pkgPolicy, __ZTV9pkgSystem, __ZTVN10debDebFile14ControlExtractE, 
                       __ZTVN10debDebFile17MemControlExtractE, __ZTVN10pkgAcquire11UriIteratorE, 
                       __ZTVN10pkgAcquire12MethodConfigE, __ZTVN10pkgAcquire4ItemE, 
                       __ZTVN10pkgAcquire5QueueE, __ZTVN10pkgAcquire6WorkerE, __ZTVN10pkgRecords6ParserE, 
                       __ZTVN11pkgDepCache11ActionGroupE, __ZTVN11pkgDepCache6PolicyE, 
                       __ZTVN12pkgAcqMethod11FetchResultE, __ZTVN12pkgAcqMethod9FetchItemE, 
                       __ZTVN13Configuration18MatchAgainstConfigE, __ZTVN13pkgSourceList4TypeE, 
                       __ZTVN13pkgSrcRecords6ParserE, __ZTVN3APT11CacheFilter10ANDMatcherE, 
                       __ZTVN3APT11CacheFilter10NOTMatcherE, __ZTVN3APT11CacheFilter11TrueMatcherE, 
                       __ZTVN3APT11CacheFilter12FalseMatcherE, __ZTVN3APT11CacheFilter14PackageMatcherE, 
                       __ZTVN3APT11CacheFilter19PackageIsNewInstallE, __ZTVN3APT11CacheFilter23PackageNameMatchesRegExE, 
                       __ZTVN3APT11CacheFilter25PackageNameMatchesFnmatchE, __ZTVN3APT11CacheFilter39PackageArchitectureMatchesSpecificationE, 
                       __ZTVN3APT11CacheFilter7MatcherE, __ZTVN3APT11CacheFilter9ORMatcherE, 
                       __ZTVN3APT14CacheSetHelperE, __ZTVN3APT15PackageUniverseE, 
                       __ZTVN3APT25PackageContainerInterfaceE, __ZTVN3APT25VersionContainerInterfaceE, 
                       __ZTVN3APT8Internal17PatternTreeParser11PatternNodeE, __ZTVN3APT8Internal17PatternTreeParser8WordNodeE, 
                       __ZTVN3APT8Progress14PackageManagerE, __ZTVN3APT8Progress18PackageManagerTextE, 
                       __ZTVN3APT8Progress19PackageManagerFancyE, __ZTVN3APT8Progress24PackageManagerProgressFdE, 
                       __ZTVN3APT8Progress30PackageManagerProgressDeb822FdE, __ZlsRNSt3__113basic_ostreamIcNS_11char_traitsIcEEEERKN3APT9PrettyDepE, 
                       __ZlsRNSt3__113basic_ostreamIcNS_11char_traitsIcEEEERKN3APT9PrettyPkgE, 
                       __config, __system, _debVS, _memrchr, _pkgLibVersion, _pkgVersion ]
...
